Archive member included because of file (symbol)

c:/sunplus/s_core~1.1/gnu/bin/../lib/gcc/score-elf/4.2.1/../../../../score-elf/lib/mel\libc.a(abort.o)
                              Debug\libgloss.o (abort)
c:/sunplus/s_core~1.1/gnu/bin/../lib/gcc/score-elf/4.2.1/../../../../score-elf/lib/mel\libc.a(atof.o)
                              Debug\m_config.o (atof)
c:/sunplus/s_core~1.1/gnu/bin/../lib/gcc/score-elf/4.2.1/../../../../score-elf/lib/mel\libc.a(atoi.o)
                              Debug\i_video.o (atoi)
c:/sunplus/s_core~1.1/gnu/bin/../lib/gcc/score-elf/4.2.1/../../../../score-elf/lib/mel\libc.a(calloc.o)
                              Debug\w_wad.o (calloc)
c:/sunplus/s_core~1.1/gnu/bin/../lib/gcc/score-elf/4.2.1/../../../../score-elf/lib/mel\libc.a(callocr.o)
                              c:/sunplus/s_core~1.1/gnu/bin/../lib/gcc/score-elf/4.2.1/../../../../score-elf/lib/mel\libc.a(calloc.o) (_calloc_r)
c:/sunplus/s_core~1.1/gnu/bin/../lib/gcc/score-elf/4.2.1/../../../../score-elf/lib/mel\libc.a(ctype_.o)
                              Debug\w_wad.o (_ctype_)
c:/sunplus/s_core~1.1/gnu/bin/../lib/gcc/score-elf/4.2.1/../../../../score-elf/lib/mel\libc.a(errno.o)
                              Debug\m_misc.o (__errno)
c:/sunplus/s_core~1.1/gnu/bin/../lib/gcc/score-elf/4.2.1/../../../../score-elf/lib/mel\libc.a(exit.o)
                              Debug\doomgeneric_hyperscan.o (exit)
c:/sunplus/s_core~1.1/gnu/bin/../lib/gcc/score-elf/4.2.1/../../../../score-elf/lib/mel\libc.a(fclose.o)
                              Debug\w_file_stdc.o (fclose)
c:/sunplus/s_core~1.1/gnu/bin/../lib/gcc/score-elf/4.2.1/../../../../score-elf/lib/mel\libc.a(fflush.o)
                              Debug\i_system.o (fflush)
c:/sunplus/s_core~1.1/gnu/bin/../lib/gcc/score-elf/4.2.1/../../../../score-elf/lib/mel\libc.a(findfp.o)
                              c:/sunplus/s_core~1.1/gnu/bin/../lib/gcc/score-elf/4.2.1/../../../../score-elf/lib/mel\libc.a(fclose.o) (__sinit)
c:/sunplus/s_core~1.1/gnu/bin/../lib/gcc/score-elf/4.2.1/../../../../score-elf/lib/mel\libc.a(fopen.o)
                              Debug\w_file_stdc.o (fopen)
c:/sunplus/s_core~1.1/gnu/bin/../lib/gcc/score-elf/4.2.1/../../../../score-elf/lib/mel\libc.a(fprintf.o)
                              Debug\z_zone.o (fprintf)
c:/sunplus/s_core~1.1/gnu/bin/../lib/gcc/score-elf/4.2.1/../../../../score-elf/lib/mel\libc.a(fputc.o)
                              Debug\gusconf.o (fputc)
c:/sunplus/s_core~1.1/gnu/bin/../lib/gcc/score-elf/4.2.1/../../../../score-elf/lib/mel\libc.a(fread.o)
                              Debug\w_file_stdc.o (fread)
c:/sunplus/s_core~1.1/gnu/bin/../lib/gcc/score-elf/4.2.1/../../../../score-elf/lib/mel\libc.a(freer.o)
                              c:/sunplus/s_core~1.1/gnu/bin/../lib/gcc/score-elf/4.2.1/../../../../score-elf/lib/mel\libc.a(fclose.o) (_free_r)
c:/sunplus/s_core~1.1/gnu/bin/../lib/gcc/score-elf/4.2.1/../../../../score-elf/lib/mel\libc.a(fseek.o)
                              c:/sunplus/s_core~1.1/gnu/bin/../lib/gcc/score-elf/4.2.1/../../../../score-elf/lib/mel\libc.a(fopen.o) (_fseek_r)
c:/sunplus/s_core~1.1/gnu/bin/../lib/gcc/score-elf/4.2.1/../../../../score-elf/lib/mel\libc.a(ftell.o)
                              Debug\p_saveg.o (ftell)
c:/sunplus/s_core~1.1/gnu/bin/../lib/gcc/score-elf/4.2.1/../../../../score-elf/lib/mel\libc.a(fwalk.o)
                              c:/sunplus/s_core~1.1/gnu/bin/../lib/gcc/score-elf/4.2.1/../../../../score-elf/lib/mel\libc.a(fflush.o) (_fwalk)
c:/sunplus/s_core~1.1/gnu/bin/../lib/gcc/score-elf/4.2.1/../../../../score-elf/lib/mel\libc.a(fwrite.o)
                              Debug\z_zone.o (fwrite)
c:/sunplus/s_core~1.1/gnu/bin/../lib/gcc/score-elf/4.2.1/../../../../score-elf/lib/mel\libc.a(impure.o)
                              Debug\p_spec.o (_impure_ptr)
c:/sunplus/s_core~1.1/gnu/bin/../lib/gcc/score-elf/4.2.1/../../../../score-elf/lib/mel\libc.a(makebuf.o)
                              c:/sunplus/s_core~1.1/gnu/bin/../lib/gcc/score-elf/4.2.1/../../../../score-elf/lib/mel\libc.a(fseek.o) (__smakebuf)
c:/sunplus/s_core~1.1/gnu/bin/../lib/gcc/score-elf/4.2.1/../../../../score-elf/lib/mel\libc.a(malloc.o)
                              Debug\w_wad.o (free)
c:/sunplus/s_core~1.1/gnu/bin/../lib/gcc/score-elf/4.2.1/../../../../score-elf/lib/mel\libc.a(mallocr.o)
                              c:/sunplus/s_core~1.1/gnu/bin/../lib/gcc/score-elf/4.2.1/../../../../score-elf/lib/mel\libc.a(callocr.o) (_malloc_r)
c:/sunplus/s_core~1.1/gnu/bin/../lib/gcc/score-elf/4.2.1/../../../../score-elf/lib/mel\libc.a(memcmp.o)
                              Debug\ff.o (memcmp)
c:/sunplus/s_core~1.1/gnu/bin/../lib/gcc/score-elf/4.2.1/../../../../score-elf/lib/mel\libc.a(memcpy.o)
                              Debug\wi_stuff.o (memcpy)
c:/sunplus/s_core~1.1/gnu/bin/../lib/gcc/score-elf/4.2.1/../../../../score-elf/lib/mel\libc.a(memmove.o)
                              Debug\d_main.o (memmove)
c:/sunplus/s_core~1.1/gnu/bin/../lib/gcc/score-elf/4.2.1/../../../../score-elf/lib/mel\libc.a(memset.o)
                              Debug\w_wad.o (memset)
c:/sunplus/s_core~1.1/gnu/bin/../lib/gcc/score-elf/4.2.1/../../../../score-elf/lib/mel\libc.a(mlock.o)
                              c:/sunplus/s_core~1.1/gnu/bin/../lib/gcc/score-elf/4.2.1/../../../../score-elf/lib/mel\libc.a(freer.o) (__malloc_lock)
c:/sunplus/s_core~1.1/gnu/bin/../lib/gcc/score-elf/4.2.1/../../../../score-elf/lib/mel\libc.a(printf.o)
                              Debug\z_zone.o (printf)
c:/sunplus/s_core~1.1/gnu/bin/../lib/gcc/score-elf/4.2.1/../../../../score-elf/lib/mel\libc.a(putchar.o)
                              Debug\r_main.o (putchar)
c:/sunplus/s_core~1.1/gnu/bin/../lib/gcc/score-elf/4.2.1/../../../../score-elf/lib/mel\libc.a(puts.o)
                              Debug\z_zone.o (puts)
c:/sunplus/s_core~1.1/gnu/bin/../lib/gcc/score-elf/4.2.1/../../../../score-elf/lib/mel\libc.a(realloc.o)
                              Debug\w_checksum.o (realloc)
c:/sunplus/s_core~1.1/gnu/bin/../lib/gcc/score-elf/4.2.1/../../../../score-elf/lib/mel\libc.a(reallocr.o)
                              c:/sunplus/s_core~1.1/gnu/bin/../lib/gcc/score-elf/4.2.1/../../../../score-elf/lib/mel\libc.a(realloc.o) (_realloc_r)
c:/sunplus/s_core~1.1/gnu/bin/../lib/gcc/score-elf/4.2.1/../../../../score-elf/lib/mel\libc.a(refill.o)
                              c:/sunplus/s_core~1.1/gnu/bin/../lib/gcc/score-elf/4.2.1/../../../../score-elf/lib/mel\libc.a(fread.o) (__srefill)
c:/sunplus/s_core~1.1/gnu/bin/../lib/gcc/score-elf/4.2.1/../../../../score-elf/lib/mel\libc.a(remove.o)
                              Debug\g_game.o (remove)
c:/sunplus/s_core~1.1/gnu/bin/../lib/gcc/score-elf/4.2.1/../../../../score-elf/lib/mel\libc.a(rename.o)
                              Debug\g_game.o (rename)
c:/sunplus/s_core~1.1/gnu/bin/../lib/gcc/score-elf/4.2.1/../../../../score-elf/lib/mel\libc.a(signal.o)
                              c:/sunplus/s_core~1.1/gnu/bin/../lib/gcc/score-elf/4.2.1/../../../../score-elf/lib/mel\libc.a(abort.o) (raise)
c:/sunplus/s_core~1.1/gnu/bin/../lib/gcc/score-elf/4.2.1/../../../../score-elf/lib/mel\libc.a(snprintf.o)
                              Debug\wi_stuff.o (snprintf)
c:/sunplus/s_core~1.1/gnu/bin/../lib/gcc/score-elf/4.2.1/../../../../score-elf/lib/mel\libc.a(sscanf.o)
                              Debug\m_misc.o (sscanf)
c:/sunplus/s_core~1.1/gnu/bin/../lib/gcc/score-elf/4.2.1/../../../../score-elf/lib/mel\libc.a(stdio.o)
                              c:/sunplus/s_core~1.1/gnu/bin/../lib/gcc/score-elf/4.2.1/../../../../score-elf/lib/mel\libc.a(findfp.o) (__sclose)
c:/sunplus/s_core~1.1/gnu/bin/../lib/gcc/score-elf/4.2.1/../../../../score-elf/lib/mel\libc.a(strcasecmp.o)
                              Debug\w_wad.o (strcasecmp)
c:/sunplus/s_core~1.1/gnu/bin/../lib/gcc/score-elf/4.2.1/../../../../score-elf/lib/mel\libc.a(strchr.o)
                              Debug\i_system.o (strchr)
c:/sunplus/s_core~1.1/gnu/bin/../lib/gcc/score-elf/4.2.1/../../../../score-elf/lib/mel\libc.a(strcmp.o)
                              Debug\p_saveg.o (strcmp)
c:/sunplus/s_core~1.1/gnu/bin/../lib/gcc/score-elf/4.2.1/../../../../score-elf/lib/mel\libc.a(strdup.o)
                              Debug\m_misc.o (strdup)
c:/sunplus/s_core~1.1/gnu/bin/../lib/gcc/score-elf/4.2.1/../../../../score-elf/lib/mel\libc.a(strdup_r.o)
                              c:/sunplus/s_core~1.1/gnu/bin/../lib/gcc/score-elf/4.2.1/../../../../score-elf/lib/mel\libc.a(strdup.o) (_strdup_r)
c:/sunplus/s_core~1.1/gnu/bin/../lib/gcc/score-elf/4.2.1/../../../../score-elf/lib/mel\libc.a(strlen.o)
                              Debug\w_wad.o (strlen)
c:/sunplus/s_core~1.1/gnu/bin/../lib/gcc/score-elf/4.2.1/../../../../score-elf/lib/mel\libc.a(strncasecmp.o)
                              Debug\w_wad.o (strncasecmp)
c:/sunplus/s_core~1.1/gnu/bin/../lib/gcc/score-elf/4.2.1/../../../../score-elf/lib/mel\libc.a(strncmp.o)
                              Debug\w_wad.o (strncmp)
c:/sunplus/s_core~1.1/gnu/bin/../lib/gcc/score-elf/4.2.1/../../../../score-elf/lib/mel\libc.a(strncpy.o)
                              Debug\w_wad.o (strncpy)
c:/sunplus/s_core~1.1/gnu/bin/../lib/gcc/score-elf/4.2.1/../../../../score-elf/lib/mel\libc.a(strrchr.o)
                              Debug\m_argv.o (strrchr)
c:/sunplus/s_core~1.1/gnu/bin/../lib/gcc/score-elf/4.2.1/../../../../score-elf/lib/mel\libc.a(strstr.o)
                              Debug\m_misc.o (strstr)
c:/sunplus/s_core~1.1/gnu/bin/../lib/gcc/score-elf/4.2.1/../../../../score-elf/lib/mel\libc.a(strtod.o)
                              c:/sunplus/s_core~1.1/gnu/bin/../lib/gcc/score-elf/4.2.1/../../../../score-elf/lib/mel\libc.a(atof.o) (strtod)
c:/sunplus/s_core~1.1/gnu/bin/../lib/gcc/score-elf/4.2.1/../../../../score-elf/lib/mel\libc.a(strtol.o)
                              c:/sunplus/s_core~1.1/gnu/bin/../lib/gcc/score-elf/4.2.1/../../../../score-elf/lib/mel\libc.a(atoi.o) (_strtol_r)
c:/sunplus/s_core~1.1/gnu/bin/../lib/gcc/score-elf/4.2.1/../../../../score-elf/lib/mel\libc.a(sysread.o)
                              Debug\doomgeneric_hyperscan.o (read)
c:/sunplus/s_core~1.1/gnu/bin/../lib/gcc/score-elf/4.2.1/../../../../score-elf/lib/mel\libc.a(system.o)
                              Debug\i_system.o (system)
c:/sunplus/s_core~1.1/gnu/bin/../lib/gcc/score-elf/4.2.1/../../../../score-elf/lib/mel\libc.a(syswrite.o)
                              Debug\libgloss.o (write)
c:/sunplus/s_core~1.1/gnu/bin/../lib/gcc/score-elf/4.2.1/../../../../score-elf/lib/mel\libc.a(vfprintf.o)
                              Debug\i_system.o (vfprintf)
c:/sunplus/s_core~1.1/gnu/bin/../lib/gcc/score-elf/4.2.1/../../../../score-elf/lib/mel\libc.a(vfscanf.o)
                              c:/sunplus/s_core~1.1/gnu/bin/../lib/gcc/score-elf/4.2.1/../../../../score-elf/lib/mel\libc.a(sscanf.o) (__svfscanf_r)
c:/sunplus/s_core~1.1/gnu/bin/../lib/gcc/score-elf/4.2.1/../../../../score-elf/lib/mel\libc.a(vsnprintf.o)
                              Debug\m_misc.o (vsnprintf)
c:/sunplus/s_core~1.1/gnu/bin/../lib/gcc/score-elf/4.2.1/../../../../score-elf/lib/mel\libc.a(wbuf.o)
                              Debug\i_system.o (__swbuf)
c:/sunplus/s_core~1.1/gnu/bin/../lib/gcc/score-elf/4.2.1/../../../../score-elf/lib/mel\libc.a(wcrtomb.o)
                              c:/sunplus/s_core~1.1/gnu/bin/../lib/gcc/score-elf/4.2.1/../../../../score-elf/lib/mel\libc.a(vfprintf.o) (_wcrtomb_r)
c:/sunplus/s_core~1.1/gnu/bin/../lib/gcc/score-elf/4.2.1/../../../../score-elf/lib/mel\libc.a(wcsrtombs.o)
                              c:/sunplus/s_core~1.1/gnu/bin/../lib/gcc/score-elf/4.2.1/../../../../score-elf/lib/mel\libc.a(vfprintf.o) (_wcsrtombs_r)
c:/sunplus/s_core~1.1/gnu/bin/../lib/gcc/score-elf/4.2.1/../../../../score-elf/lib/mel\libc.a(wctomb_r.o)
                              c:/sunplus/s_core~1.1/gnu/bin/../lib/gcc/score-elf/4.2.1/../../../../score-elf/lib/mel\libc.a(wcrtomb.o) (_wctomb_r)
c:/sunplus/s_core~1.1/gnu/bin/../lib/gcc/score-elf/4.2.1/../../../../score-elf/lib/mel\libc.a(wsetup.o)
                              c:/sunplus/s_core~1.1/gnu/bin/../lib/gcc/score-elf/4.2.1/../../../../score-elf/lib/mel\libc.a(vfprintf.o) (__swsetup)
c:/sunplus/s_core~1.1/gnu/bin/../lib/gcc/score-elf/4.2.1/../../../../score-elf/lib/mel\libc.a(dtoa.o)
                              c:/sunplus/s_core~1.1/gnu/bin/../lib/gcc/score-elf/4.2.1/../../../../score-elf/lib/mel\libc.a(vfprintf.o) (_dtoa_r)
c:/sunplus/s_core~1.1/gnu/bin/../lib/gcc/score-elf/4.2.1/../../../../score-elf/lib/mel\libc.a(flags.o)
                              c:/sunplus/s_core~1.1/gnu/bin/../lib/gcc/score-elf/4.2.1/../../../../score-elf/lib/mel\libc.a(fopen.o) (__sflags)
c:/sunplus/s_core~1.1/gnu/bin/../lib/gcc/score-elf/4.2.1/../../../../score-elf/lib/mel\libc.a(fvwrite.o)
                              c:/sunplus/s_core~1.1/gnu/bin/../lib/gcc/score-elf/4.2.1/../../../../score-elf/lib/mel\libc.a(fwrite.o) (__sfvwrite)
c:/sunplus/s_core~1.1/gnu/bin/../lib/gcc/score-elf/4.2.1/../../../../score-elf/lib/mel\libc.a(iswspace.o)
                              c:/sunplus/s_core~1.1/gnu/bin/../lib/gcc/score-elf/4.2.1/../../../../score-elf/lib/mel\libc.a(vfscanf.o) (iswspace)
c:/sunplus/s_core~1.1/gnu/bin/../lib/gcc/score-elf/4.2.1/../../../../score-elf/lib/mel\libc.a(locale.o)
                              c:/sunplus/s_core~1.1/gnu/bin/../lib/gcc/score-elf/4.2.1/../../../../score-elf/lib/mel\libc.a(vfprintf.o) (localeconv)
c:/sunplus/s_core~1.1/gnu/bin/../lib/gcc/score-elf/4.2.1/../../../../score-elf/lib/mel\libc.a(mbrtowc.o)
                              c:/sunplus/s_core~1.1/gnu/bin/../lib/gcc/score-elf/4.2.1/../../../../score-elf/lib/mel\libc.a(vfscanf.o) (_mbrtowc_r)
c:/sunplus/s_core~1.1/gnu/bin/../lib/gcc/score-elf/4.2.1/../../../../score-elf/lib/mel\libc.a(mbtowc_r.o)
                              c:/sunplus/s_core~1.1/gnu/bin/../lib/gcc/score-elf/4.2.1/../../../../score-elf/lib/mel\libc.a(mbrtowc.o) (_mbtowc_r)
c:/sunplus/s_core~1.1/gnu/bin/../lib/gcc/score-elf/4.2.1/../../../../score-elf/lib/mel\libc.a(memchr.o)
                              c:/sunplus/s_core~1.1/gnu/bin/../lib/gcc/score-elf/4.2.1/../../../../score-elf/lib/mel\libc.a(vfprintf.o) (memchr)
c:/sunplus/s_core~1.1/gnu/bin/../lib/gcc/score-elf/4.2.1/../../../../score-elf/lib/mel\libc.a(mprec.o)
                              c:/sunplus/s_core~1.1/gnu/bin/../lib/gcc/score-elf/4.2.1/../../../../score-elf/lib/mel\libc.a(strtod.o) (_Bfree)
c:/sunplus/s_core~1.1/gnu/bin/../lib/gcc/score-elf/4.2.1/../../../../score-elf/lib/mel\libc.a(s_infconst.o)
                              c:/sunplus/s_core~1.1/gnu/bin/../lib/gcc/score-elf/4.2.1/../../../../score-elf/lib/mel\libc.a(strtod.o) (__infinity)
c:/sunplus/s_core~1.1/gnu/bin/../lib/gcc/score-elf/4.2.1/../../../../score-elf/lib/mel\libc.a(s_isinf.o)
                              c:/sunplus/s_core~1.1/gnu/bin/../lib/gcc/score-elf/4.2.1/../../../../score-elf/lib/mel\libc.a(vfprintf.o) (isinf)
c:/sunplus/s_core~1.1/gnu/bin/../lib/gcc/score-elf/4.2.1/../../../../score-elf/lib/mel\libc.a(s_isnan.o)
                              c:/sunplus/s_core~1.1/gnu/bin/../lib/gcc/score-elf/4.2.1/../../../../score-elf/lib/mel\libc.a(vfprintf.o) (isnan)
c:/sunplus/s_core~1.1/gnu/bin/../lib/gcc/score-elf/4.2.1/../../../../score-elf/lib/mel\libc.a(sprintf.o)
                              c:/sunplus/s_core~1.1/gnu/bin/../lib/gcc/score-elf/4.2.1/../../../../score-elf/lib/mel\libc.a(vfscanf.o) (sprintf)
c:/sunplus/s_core~1.1/gnu/bin/../lib/gcc/score-elf/4.2.1/../../../../score-elf/lib/mel\libc.a(strtoll_r.o)
                              c:/sunplus/s_core~1.1/gnu/bin/../lib/gcc/score-elf/4.2.1/../../../../score-elf/lib/mel\libc.a(vfscanf.o) (_strtoll_r)
c:/sunplus/s_core~1.1/gnu/bin/../lib/gcc/score-elf/4.2.1/../../../../score-elf/lib/mel\libc.a(strtoull_r.o)
                              c:/sunplus/s_core~1.1/gnu/bin/../lib/gcc/score-elf/4.2.1/../../../../score-elf/lib/mel\libc.a(vfscanf.o) (_strtoull_r)
c:/sunplus/s_core~1.1/gnu/bin/../lib/gcc/score-elf/4.2.1/../../../../score-elf/lib/mel\libc.a(strtoul.o)
                              c:/sunplus/s_core~1.1/gnu/bin/../lib/gcc/score-elf/4.2.1/../../../../score-elf/lib/mel\libc.a(vfscanf.o) (_strtoul_r)
c:/sunplus/s_core~1.1/gnu/bin/../lib/gcc/score-elf/4.2.1/../../../../score-elf/lib/mel\libc.a(ungetc.o)
                              c:/sunplus/s_core~1.1/gnu/bin/../lib/gcc/score-elf/4.2.1/../../../../score-elf/lib/mel\libc.a(vfscanf.o) (ungetc)
c:/sunplus/s_core~1.1/gnu/bin/../lib/gcc/score-elf/4.2.1/mel\libgcc.a(_addsub_sf.o)
                              Debug\v_video.o (__subsf3)
c:/sunplus/s_core~1.1/gnu/bin/../lib/gcc/score-elf/4.2.1/mel\libgcc.a(_addsub_df.o)
                              c:/sunplus/s_core~1.1/gnu/bin/../lib/gcc/score-elf/4.2.1/../../../../score-elf/lib/mel\libc.a(strtod.o) (__subdf3)
c:/sunplus/s_core~1.1/gnu/bin/../lib/gcc/score-elf/4.2.1/mel\libgcc.a(_mulsf3.o)
                              Debug\g_game.o (__mulsf3)
c:/sunplus/s_core~1.1/gnu/bin/../lib/gcc/score-elf/4.2.1/mel\libgcc.a(_muldf3.o)
                              c:/sunplus/s_core~1.1/gnu/bin/../lib/gcc/score-elf/4.2.1/../../../../score-elf/lib/mel\libc.a(strtod.o) (__muldf3)
c:/sunplus/s_core~1.1/gnu/bin/../lib/gcc/score-elf/4.2.1/mel\libgcc.a(_divsf3.o)
                              Debug\v_video.o (__divsf3)
c:/sunplus/s_core~1.1/gnu/bin/../lib/gcc/score-elf/4.2.1/mel\libgcc.a(_divdf3.o)
                              c:/sunplus/s_core~1.1/gnu/bin/../lib/gcc/score-elf/4.2.1/../../../../score-elf/lib/mel\libc.a(strtod.o) (__divdf3)
c:/sunplus/s_core~1.1/gnu/bin/../lib/gcc/score-elf/4.2.1/mel\libgcc.a(_clz32.o)
                              c:/sunplus/s_core~1.1/gnu/bin/../lib/gcc/score-elf/4.2.1/mel\libgcc.a(_mulsf3.o) (countLeadingZeros32)
c:/sunplus/s_core~1.1/gnu/bin/../lib/gcc/score-elf/4.2.1/mel\libgcc.a(_clz64.o)
                              c:/sunplus/s_core~1.1/gnu/bin/../lib/gcc/score-elf/4.2.1/mel\libgcc.a(_muldf3.o) (countLeadingZeros64)
c:/sunplus/s_core~1.1/gnu/bin/../lib/gcc/score-elf/4.2.1/mel\libgcc.a(_floatsisf.o)
                              Debug\v_video.o (__floatsisf)
c:/sunplus/s_core~1.1/gnu/bin/../lib/gcc/score-elf/4.2.1/mel\libgcc.a(_floatsidf.o)
                              c:/sunplus/s_core~1.1/gnu/bin/../lib/gcc/score-elf/4.2.1/../../../../score-elf/lib/mel\libc.a(strtod.o) (__floatsidf)
c:/sunplus/s_core~1.1/gnu/bin/../lib/gcc/score-elf/4.2.1/mel\libgcc.a(_floatunsidf.o)
                              c:/sunplus/s_core~1.1/gnu/bin/../lib/gcc/score-elf/4.2.1/../../../../score-elf/lib/mel\libc.a(strtod.o) (__floatunsidf)
c:/sunplus/s_core~1.1/gnu/bin/../lib/gcc/score-elf/4.2.1/mel\libgcc.a(_sf_to_df.o)
                              Debug\v_video.o (__extendsfdf2)
c:/sunplus/s_core~1.1/gnu/bin/../lib/gcc/score-elf/4.2.1/mel\libgcc.a(_df_to_sf.o)
                              Debug\m_config.o (__truncdfsf2)
c:/sunplus/s_core~1.1/gnu/bin/../lib/gcc/score-elf/4.2.1/mel\libgcc.a(_fixsfsi.o)
                              Debug\v_video.o (__fixsfsi)
c:/sunplus/s_core~1.1/gnu/bin/../lib/gcc/score-elf/4.2.1/mel\libgcc.a(_fixdfsi.o)
                              c:/sunplus/s_core~1.1/gnu/bin/../lib/gcc/score-elf/4.2.1/../../../../score-elf/lib/mel\libc.a(strtod.o) (__fixdfsi)
c:/sunplus/s_core~1.1/gnu/bin/../lib/gcc/score-elf/4.2.1/mel\libgcc.a(_fpcmp_parts_df.o)
                              c:/sunplus/s_core~1.1/gnu/bin/../lib/gcc/score-elf/4.2.1/../../../../score-elf/lib/mel\libc.a(strtod.o) (__gtdf2)
c:/sunplus/s_core~1.1/gnu/bin/../lib/gcc/score-elf/4.2.1/mel\libgcc.a(_divdi3.o)
                              Debug\m_fixed.o (__divdi3)
c:/sunplus/s_core~1.1/gnu/bin/../lib/gcc/score-elf/4.2.1/mel\libgcc.a(_udivdi3.o)
                              c:/sunplus/s_core~1.1/gnu/bin/../lib/gcc/score-elf/4.2.1/../../../../score-elf/lib/mel\libc.a(strtoll_r.o) (__udivdi3)
c:/sunplus/s_core~1.1/gnu/bin/../lib/gcc/score-elf/4.2.1/mel\libgcc.a(_umoddi3.o)
                              c:/sunplus/s_core~1.1/gnu/bin/../lib/gcc/score-elf/4.2.1/../../../../score-elf/lib/mel\libc.a(strtoll_r.o) (__umoddi3)
c:/sunplus/s_core~1.1/gnu/bin/../lib/gcc/score-elf/4.2.1/mel\libgcc.a(_clz.o)
                              c:/sunplus/s_core~1.1/gnu/bin/../lib/gcc/score-elf/4.2.1/mel\libgcc.a(_divdi3.o) (__clz_tab)

Allocating common symbols
Common symbol       size              file

sidedef             0x4               Debug\r_bsp.o
detailshift         0x4               Debug\r_main.o
sectors             0x4               Debug\p_setup.o
planezlight         0x4               Debug\r_plane.o
numflats            0x4               Debug\r_data.o
shootthing          0x4               Debug\p_map.o
pspritescale        0x4               Debug\r_things.o
castonmelee         0x4               Debug\f_finale.o
timingdemo          0x4               Debug\g_game.o
worldbottom         0x4               Debug\r_segs.o
tmflags             0x4               Debug\p_map.o
paused              0x4               Debug\g_game.o
topslope            0x4               Debug\p_sight.o
pixhighstep         0x4               Debug\r_segs.o
bmapwidth           0x4               Debug\p_setup.o
sprites             0x4               Debug\r_things.o
whichSkull          0x2               Debug\m_menu.o
skytexture          0x4               Debug\r_sky.o
totalitems          0x4               Debug\g_game.o
centery             0x4               Debug\r_main.o
projection          0x4               Debug\r_main.o
st_backing_screen   0x4               Debug\st_stuff.o
texturecolumnlump   0x4               Debug\r_data.o
rw_x                0x4               Debug\r_segs.o
ceilingplane        0x4               Debug\r_plane.o
sightcounts         0x8               Debug\p_sight.o
linedef             0x4               Debug\r_bsp.o
viewcos             0x4               Debug\r_main.o
finalecount         0x4               Debug\f_finale.o
vertexes            0x4               Debug\p_setup.o
fixedcolormap       0x4               Debug\r_main.o
transcolfunc        0x4               Debug\r_main.o
deathmatch_p        0x4               Debug\p_setup.o
dc_yl               0x4               Debug\r_draw.o
numlinespecials     0x2               Debug\p_spec.o
topfrac             0x4               Debug\r_segs.o
castnum             0x4               Debug\f_finale.o
ds_source           0x4               Debug\r_draw.o
tmceilingz          0x4               Debug\p_map.o
saveOldString       0x18              Debug\m_menu.o
texturecolumnofs    0x4               Debug\r_data.o
vissprites          0x1e00            Debug\r_things.o
startmap            0x4               Debug\d_main.o
zlight              0x2000            Debug\r_main.o
extralight          0x4               Debug\r_main.o
bombdamage          0x4               Debug\p_map.o
starttime           0x4               Debug\g_game.o
screenvisible       0x4               Debug\i_video.o
linespeciallist     0x100             Debug\p_spec.o
bmaporgy            0x4               Debug\p_setup.o
lasttime            0x4               Debug\d_loop.o
numsides            0x4               Debug\p_setup.o
tmthing             0x4               Debug\p_map.o
blockmaplump        0x4               Debug\p_setup.o
hu_font             0xfc              Debug\hu_stuff.o
openbottom          0x4               Debug\p_maputl.o
tmx                 0x4               Debug\p_map.o
skullAnimCounter    0x2               Debug\m_menu.o
activeplats         0x78              Debug\p_plats.o
openrange           0x4               Debug\p_maputl.o
demoname            0x4               Debug\g_game.o
numbraintargets     0x4               Debug\p_enemy.o
cd_Error            0x4               Debug\i_cdmus.o
fuzzcolfunc         0x4               Debug\r_main.o
rejectmatrix        0x4               Debug\p_setup.o
textureheight       0x4               Debug\r_data.o
trace               0x10              Debug\p_maputl.o
floorfunc           0x4               Debug\r_plane.o
numpatches          0x4               Debug\r_data.o
lastopening         0x4               Debug\r_plane.o
rw_scale            0x4               Debug\r_segs.o
nofit               0x4               Debug\p_map.o
viewy               0x4               Debug\r_main.o
oldgamestate        0x4               Debug\g_game.o
viewangletox        0x4000            Debug\r_main.o
firstflat           0x4               Debug\r_data.o
opentop             0x4               Debug\p_maputl.o
bodyque             0x80              Debug\g_game.o
secondslidefrac     0x4               Debug\p_map.o
soundtarget         0x4               Debug\p_enemy.o
fs                  0x230             Debug\libgloss.o
ceilingline         0x4               Debug\p_map.o
ds_x2               0x4               Debug\r_draw.o
visplanes           0x14c00           Debug\r_plane.o
netdemo             0x4               Debug\g_game.o
iwadfile            0x4               Debug\d_main.o
levelTimeCount      0x4               Debug\p_spec.o
swingy              0x4               Debug\p_pspr.o
framecount          0x4               Debug\r_main.o
d_skill             0x4               Debug\g_game.o
frontsector         0x4               Debug\r_bsp.o
numvertexes         0x4               Debug\p_setup.o
savegame_error      0x4               Debug\p_saveg.o
myargv              0x4               Debug\m_argv.o
savegamelength      0x4               Debug\p_saveg.o
setsizeneeded       0x4               Debug\r_main.o
usergame            0x4               Debug\g_game.o
quickSaveSlot       0x4               Debug\m_menu.o
ds_xstep            0x4               Debug\r_draw.o
respawnmonsters     0x4               Debug\g_game.o
ds_colormap         0x4               Debug\r_draw.o
bombspot            0x4               Debug\p_map.o
xtoviewangle        0x504             Debug\r_main.o
loopcount           0x4               Debug\r_main.o
read_e2             0x4               Debug\m_menu.o
vissprite_p         0x4               Debug\r_things.o
ds_p                0x4               Debug\r_bsp.o
scalelight          0xc00             Debug\r_main.o
tmfloorz            0x4               Debug\p_map.o
worldtop            0x4               Debug\r_segs.o
wadfile             0x400             Debug\d_main.o
demobuffer          0x4               Debug\g_game.o
viewwidth           0x4               Debug\r_draw.o
defdemoname         0x4               Debug\g_game.o
numswitches         0x4               Debug\p_switch.o
bombsource          0x4               Debug\p_map.o
testcontrols_mousespeed
                    0x4               Debug\g_game.o
setdetail           0x4               Debug\r_main.o
intercepts          0x8dc             Debug\p_maputl.o
iquehead            0x4               Debug\p_mobj.o
colfunc             0x4               Debug\r_main.o
midtexture          0x4               Debug\r_segs.o
saveSlot            0x4               Debug\m_menu.o
flattranslation     0x4               Debug\r_data.o
ds_ystep            0x4               Debug\r_draw.o
startloadgame       0x4               Debug\d_main.o
savename            0x100             Debug\g_game.o
consoleplayer       0x4               Debug\g_game.o
textures_hashtable  0x4               Debug\r_data.o
playerstarts        0x28              Debug\p_setup.o
attackrange         0x4               Debug\p_map.o
savegamedir         0x4               Debug\d_main.o
configdir           0x4               Debug\m_config.o
distscale           0x500             Debug\r_plane.o
usething            0x4               Debug\p_map.o
rw_offset           0x4               Debug\r_segs.o
shootz              0x4               Debug\p_map.o
linecount           0x4               Debug\r_main.o
casttics            0x4               Debug\f_finale.o
pixlow              0x4               Debug\r_segs.o
openings            0xa000            Debug\r_plane.o
sprtemp             0x32c             Debug\r_things.o
newgame_e           0x4               Debug\m_menu.o
floorclip           0x280             Debug\r_plane.o
rw_bottomtexturemid
                    0x4               Debug\r_segs.o
spryscale           0x4               Debug\r_things.o
texturememory       0x4               Debug\r_data.o
tmbbox              0x10              Debug\p_map.o
key_multi_msgplayer
                    0x20              Debug\m_controls.o
rw_stopx            0x4               Debug\r_segs.o
levelTimer          0x4               Debug\p_spec.o
lastspritelump      0x4               Debug\r_data.o
pagetic             0x4               Debug\d_main.o
texturecompositesize
                    0x4               Debug\r_data.o
clipangle           0x4               Debug\r_main.o
players             0x480             Debug\g_game.o
switchlist          0x190             Debug\p_switch.o
numsectors          0x4               Debug\p_setup.o
strace              0x10              Debug\p_sight.o
startskill          0x4               Debug\d_main.o
earlyout            0x4               Debug\p_maputl.o
demo_p              0x4               Debug\g_game.o
vsprsortedhead      0x3c              Debug\r_things.o
ds_yfrac            0x4               Debug\r_draw.o
spritewidth         0x4               Debug\r_data.o
ds_xfrac            0x4               Debug\r_draw.o
messageNeedsInput   0x4               Debug\m_menu.o
bottomtexture       0x4               Debug\r_segs.o
respawnparm         0x4               Debug\d_main.o
title               0x80              Debug\d_main.o
planeheight         0x4               Debug\r_plane.o
viletryx            0x4               Debug\p_enemy.o
dc_yh               0x4               Debug\r_draw.o
finaleflat          0x4               Debug\f_finale.o
dc_x                0x4               Debug\r_draw.o
totalsecret         0x4               Debug\g_game.o
screenheightarray   0x280             Debug\r_things.o
corpsehit           0x4               Debug\p_enemy.o
messy               0x4               Debug\m_menu.o
bulletslope         0x4               Debug\p_pspr.o
gamestate           0x4               Debug\g_game.o
deathmatchstarts    0x64              Debug\p_setup.o
texturewidthmask    0x4               Debug\r_data.o
flatmemory          0x4               Debug\r_data.o
maxframe            0x4               Debug\r_things.o
backsector          0x4               Debug\r_bsp.o
cachedxstep         0x320             Debug\r_plane.o
dc_source           0x4               Debug\r_draw.o
castattacking       0x4               Debug\f_finale.o
netgame             0x4               Debug\g_game.o
newend              0x4               Debug\r_bsp.o
anims               0x280             Debug\p_spec.o
viewsin             0x4               Debug\r_main.o
lastflat            0x4               Debug\r_data.o
mousey              0x4               Debug\g_game.o
mceilingclip        0x4               Debug\r_things.o
sscount             0x4               Debug\r_main.o
episodes_e          0x4               Debug\m_menu.o
centerx             0x4               Debug\r_main.o
singledemo          0x4               Debug\g_game.o
netcmds             0x4               Debug\d_net.o
tmy                 0x4               Debug\p_map.o
wminfo              0xc8              Debug\g_game.o
messageRoutine      0x4               Debug\m_menu.o
linetarget          0x4               Debug\p_map.o
bmaporgx            0x4               Debug\p_setup.o
dc_iscale           0x4               Debug\r_draw.o
spanfunc            0x4               Debug\r_main.o
rw_toptexturemid    0x4               Debug\r_segs.o
ylookup             0xd00             Debug\r_draw.o
load_e              0x4               Debug\m_menu.o
chat_on             0x4               Debug\hu_stuff.o
lastanim            0x4               Debug\p_spec.o
texturetranslation  0x4               Debug\r_data.o
lowres_turn         0x4               Debug\g_game.o
messageLastMenuActive
                    0x4               Debug\m_menu.o
consistancy         0x200             Debug\g_game.o
solidsegs           0x100             Debug\r_bsp.o
caststate           0x4               Debug\f_finale.o
test                0x4               Debug\p_mobj.o
lastvisplane        0x4               Debug\r_plane.o
viewimage           0x4               Debug\r_draw.o
subsectors          0x4               Debug\p_setup.o
intercept_p         0x4               Debug\p_maputl.o
segs                0x4               Debug\p_setup.o
mapdir              0x400             Debug\d_main.o
demosequence        0x4               Debug\d_main.o
newvissprite        0x4               Debug\r_things.o
currentMenu         0x4               Debug\m_menu.o
numtextures         0x4               Debug\r_data.o
sttminus            0x4               Debug\st_lib.o
overflowsprite      0x3c              Debug\r_things.o
nomonsters          0x4               Debug\d_main.o
demoend             0x4               Debug\g_game.o
numsegs             0x4               Debug\p_setup.o
spriteoffset        0x4               Debug\r_data.o
modifiedgame        0x4               Debug\doomstat.o
firstspritelump     0x4               Debug\r_data.o
devparm             0x4               Debug\d_main.o
baseyscale          0x4               Debug\r_plane.o
iquetail            0x4               Debug\p_mobj.o
markfloor           0x4               Debug\r_segs.o
numsprites          0x4               Debug\r_things.o
menuactive          0x4               Debug\m_menu.o
finalestage         0x4               Debug\f_finale.o
lumpinfo            0x4               Debug\w_wad.o
demoplayback        0x4               Debug\g_game.o
pspriteiscale       0x4               Debug\r_things.o
tmdropoffz          0x4               Debug\p_map.o
controller          0x5               Debug\doomgeneric_hyperscan.o
totalkills          0x4               Debug\g_game.o
scalelightfixed     0xc0              Debug\r_main.o
gameskill           0x4               Debug\g_game.o
playeringame        0x10              Debug\g_game.o
basecolfunc         0x4               Debug\r_main.o
bmapheight          0x4               Debug\p_setup.o
finaletext          0x4               Debug\f_finale.o
numlines            0x4               Debug\p_setup.o
viewplayer          0x4               Debug\r_main.o
translationtables   0x4               Debug\r_draw.o
sprtopscreen        0x4               Debug\r_things.o
walllights          0x4               Debug\r_segs.o
itemrespawntime     0x200             Debug\p_mobj.o
gameepisode         0x4               Debug\g_game.o
main_e              0x4               Debug\m_menu.o
viewz               0x4               Debug\r_main.o
t2y                 0x4               Debug\p_sight.o
mfloorclip          0x4               Debug\r_things.o
segtextured         0x4               Debug\r_segs.o
gametic             0x4               Debug\d_loop.o
nodes               0x4               Debug\p_setup.o
lastpatch           0x4               Debug\r_data.o
textures            0x4               Debug\r_data.o
turbodetected       0x10              Debug\g_game.o
pixlowstep          0x4               Debug\r_segs.o
spritename          0x4               Debug\r_things.o
numnodes            0x4               Debug\p_setup.o
timelimit           0x4               Debug\g_game.o
spanstop            0x320             Debug\r_plane.o
rw_normalangle      0x4               Debug\r_segs.o
fastparm            0x4               Debug\d_main.o
skyflatnum          0x4               Debug\r_sky.o
curline             0x4               Debug\r_bsp.o
levelstarttic       0x4               Debug\g_game.o
spanstart           0x320             Debug\r_plane.o
read_e              0x4               Debug\m_menu.o
viewheight          0x4               Debug\r_draw.o
colormaps           0x4               Debug\r_data.o
dc_texturemid       0x4               Debug\r_draw.o
cachedystep         0x320             Debug\r_plane.o
viewangleoffset     0x4               Debug\r_main.o
sound_e             0x4               Debug\m_menu.o
worldlow            0x4               Debug\r_segs.o
numspechit          0x4               Debug\p_map.o
setblocks           0x4               Debug\r_main.o
thinkercap          0xc               Debug\p_tick.o
spritememory        0x4               Debug\r_data.o
ds_x1               0x4               Debug\r_draw.o
d_map               0x4               Debug\g_game.o
bottomfrac          0x4               Debug\r_segs.o
onground            0x4               Debug\p_user.o
gamedescription     0x4               Debug\doomstat.o
viletryy            0x4               Debug\p_enemy.o
dccount             0x4               Debug\r_draw.o
options_e           0x4               Debug\m_menu.o
vileobj             0x4               Debug\p_enemy.o
demorecording       0x4               Debug\g_game.o
d_episode           0x4               Debug\g_game.o
nodrawers           0x4               Debug\g_game.o
messx               0x4               Debug\m_menu.o
screenSize          0x4               Debug\m_menu.o
bottomslope         0x4               Debug\p_sight.o
ceilingclip         0x280             Debug\r_plane.o
myargc              0x4               Debug\m_argv.o
deathmatch          0x4               Debug\g_game.o
secondslideline     0x4               Debug\p_map.o
ticdup              0x4               Debug\d_loop.o
rw_distance         0x4               Debug\r_segs.o
displayplayer       0x4               Debug\g_game.o
pagename            0x4               Debug\d_main.o
columnofs           0x1180            Debug\r_draw.o
endstring           0xa0              Debug\m_menu.o
offsetms            0x4               Debug\d_loop.o
bestslidefrac       0x4               Debug\p_map.o
rw_scalestep        0x4               Debug\r_segs.o
saveStringEnter     0x4               Debug\m_menu.o
autostart           0x4               Debug\d_main.o
scaledviewwidth     0x4               Debug\r_draw.o
centeryfrac         0x4               Debug\r_main.o
maskedtexture       0x4               Debug\r_segs.o
toptexture          0x4               Debug\r_segs.o
spritelights        0x4               Debug\r_things.o
advancedemo         0x4               Debug\d_main.o
spritetopoffset     0x4               Debug\r_data.o
floatok             0x4               Debug\p_map.o
yslope              0x320             Debug\r_plane.o
firstpatch          0x4               Debug\r_data.o
itemOn              0x2               Debug\m_menu.o
drawsegs            0x3000            Debug\r_bsp.o
worldhigh           0x4               Debug\r_segs.o
viewactive          0x4               Debug\g_game.o
ptflags             0x4               Debug\p_maputl.o
longtics            0x4               Debug\g_game.o
aimslope            0x4               Debug\p_map.o
specials_e          0x4               Debug\p_saveg.o
sides               0x4               Debug\p_setup.o
blockmap            0x4               Debug\p_setup.o
swingx              0x4               Debug\p_pspr.o
sendsave            0x4               Debug\g_game.o
saveCharIndex       0x4               Debug\m_menu.o
messageString       0x4               Debug\m_menu.o
castframes          0x4               Debug\f_finale.o
dc_translation      0x4               Debug\r_draw.o
tmxmove             0x4               Debug\p_map.o
blocklinks          0x4               Debug\p_setup.o
skytexturemid       0x4               Debug\r_sky.o
storedemo           0x4               Debug\d_main.o
viewangle           0x4               Debug\r_main.o
epi                 0x4               Debug\m_menu.o
cachedheight        0x320             Debug\r_plane.o
leveltime           0x4               Debug\p_tick.o
t2x                 0x4               Debug\p_sight.o
la_damage           0x4               Debug\p_map.o
startepisode        0x4               Debug\d_main.o
gamemap             0x4               Debug\g_game.o
negonearray         0x280             Debug\r_things.o
tempstring          0x50              Debug\m_menu.o
buttonlist          0x140             Debug\p_switch.o
translations        0x300             Debug\r_draw.o
viewx               0x4               Debug\r_main.o
activeceilings      0x78              Debug\p_ceilng.o
dirtybox            0x10              Debug\v_video.o
gameaction          0x4               Debug\g_game.o
itemrespawnque      0x500             Debug\p_mobj.o
mousex              0x4               Debug\g_game.o
lowfloor            0x4               Debug\p_maputl.o
sendpause           0x4               Debug\g_game.o
tmymove             0x4               Debug\p_map.o
bottomstep          0x4               Debug\r_segs.o
rw_angle1           0x4               Debug\r_segs.o
cacheddistance      0x320             Debug\r_plane.o
rw_midtexturemid    0x4               Debug\r_segs.o
maskedtexturecol    0x4               Debug\r_segs.o
bestslideline       0x4               Debug\p_map.o
dc_colormap         0x4               Debug\r_draw.o
message_dontfuckwithme
                    0x4               Debug\hu_stuff.o
centerxfrac         0x4               Debug\r_main.o
castdeath           0x4               Debug\f_finale.o
texturecomposite    0x4               Debug\r_data.o
savegamestrings     0xf0              Debug\m_menu.o
spechit             0x50              Debug\p_map.o
mainzone            0x4               Debug\z_zone.o
inhelpscreens       0x4               Debug\m_menu.o
viewwindowy         0x4               Debug\r_draw.o
markceiling         0x4               Debug\r_segs.o
topstep             0x4               Debug\r_segs.o
rw_centerangle      0x4               Debug\r_segs.o
crushchange         0x4               Debug\p_map.o
basexscale          0x4               Debug\r_plane.o
secretexit          0x4               Debug\g_game.o
messageToPrint      0x4               Debug\m_menu.o
pixhigh             0x4               Debug\r_segs.o
numsubsectors       0x4               Debug\p_setup.o
braintargets        0x80              Debug\p_enemy.o
ds_y                0x4               Debug\r_draw.o
chat_char           0x1               Debug\hu_stuff.o
sightzstart         0x4               Debug\p_sight.o
bfgedition          0x4               Debug\d_main.o
dscount             0x4               Debug\r_draw.o
numspritelumps      0x4               Debug\r_data.o
viewwindowx         0x4               Debug\r_draw.o
save_stream         0x4               Debug\p_saveg.o
lines               0x4               Debug\p_setup.o
ceilingfunc         0x4               Debug\r_plane.o
floorplane          0x4               Debug\r_plane.o
slidemo             0x4               Debug\p_map.o
bodyqueslot         0x4               Debug\g_game.o

Memory Configuration

Name             Origin             Length             Attributes
*default*        0x0000000000000000 0xffffffffffffffff

Linker script and memory map

LOAD Obj.lst
LOAD Debug\hyperscan_startup.o
LOAD Debug\z_zone.o
LOAD Debug\wi_stuff.o
LOAD Debug\w_wad.o
LOAD Debug\w_main.o
LOAD Debug\w_file_stdc.o
LOAD Debug\w_file.o
LOAD Debug\w_checksum.o
LOAD Debug\v_video.o
LOAD Debug\tables.o
LOAD Debug\statdump.o
LOAD Debug\st_stuff.o
LOAD Debug\st_lib.o
LOAD Debug\sounds.o
LOAD Debug\sha1.o
LOAD Debug\s_sound.o
LOAD Debug\r_things.o
LOAD Debug\r_sky.o
LOAD Debug\r_segs.o
LOAD Debug\r_plane.o
LOAD Debug\r_main.o
LOAD Debug\r_draw.o
LOAD Debug\r_data.o
LOAD Debug\r_bsp.o
LOAD Debug\p_user.o
LOAD Debug\p_tick.o
LOAD Debug\p_telept.o
LOAD Debug\p_switch.o
LOAD Debug\p_spec.o
LOAD Debug\p_sight.o
LOAD Debug\p_setup.o
LOAD Debug\p_saveg.o
LOAD Debug\p_pspr.o
LOAD Debug\p_plats.o
LOAD Debug\p_mobj.o
LOAD Debug\p_maputl.o
LOAD Debug\p_map.o
LOAD Debug\p_lights.o
LOAD Debug\p_inter.o
LOAD Debug\p_floor.o
LOAD Debug\p_enemy.o
LOAD Debug\p_doors.o
LOAD Debug\p_ceilng.o
LOAD Debug\mus2mid.o
LOAD Debug\memio.o
LOAD Debug\m_random.o
LOAD Debug\m_misc.o
LOAD Debug\m_menu.o
LOAD Debug\m_fixed.o
LOAD Debug\m_controls.o
LOAD Debug\m_config.o
LOAD Debug\m_cheat.o
LOAD Debug\m_bbox.o
LOAD Debug\m_argv.o
LOAD Debug\info.o
LOAD Debug\icon.o
LOAD Debug\i_video.o
LOAD Debug\i_timer.o
LOAD Debug\i_system.o
LOAD Debug\i_sound.o
LOAD Debug\i_scale.o
LOAD Debug\i_joystick.o
LOAD Debug\i_input.o
LOAD Debug\i_endoom.o
LOAD Debug\i_cdmus.o
LOAD Debug\hu_stuff.o
LOAD Debug\hu_lib.o
LOAD Debug\gusconf.o
LOAD Debug\g_game.o
LOAD Debug\f_wipe.o
LOAD Debug\f_finale.o
LOAD Debug\dummy.o
LOAD Debug\dstrings.o
LOAD Debug\doomstat.o
LOAD Debug\doomgeneric_hyperscan.o
LOAD Debug\doomgeneric.o
LOAD Debug\doomdef.o
LOAD Debug\d_net.o
LOAD Debug\d_mode.o
LOAD Debug\d_main.o
LOAD Debug\d_loop.o
LOAD Debug\d_iwad.o
LOAD Debug\d_items.o
LOAD Debug\d_event.o
LOAD Debug\am_map.o
LOAD Debug\libgloss.o
LOAD Debug\UART.o
LOAD Debug\TV.o
LOAD Debug\NorFlash.o
LOAD Debug\User_IRQ.o
LOAD Debug\sys_isr.o
LOAD Debug\I2C.o
LOAD Debug\ff.o
LOAD Debug\diskio.o
LOAD Debug\HS_Controller.o
LOAD Lib.lst
LOAD c:/sunplus/s_core~1.1/gnu/bin/../lib/gcc/score-elf/4.2.1/../../../../score-elf/lib/mel\libm.a
LOAD c:/sunplus/s_core~1.1/gnu/bin/../lib/gcc/score-elf/4.2.1/../../../../score-elf/lib/mel\libc.a
LOAD c:/sunplus/s_core~1.1/gnu/bin/../lib/gcc/score-elf/4.2.1/mel\libgcc.a
LOAD c:/sunplus/s_core~1.1/gnu/bin/../lib/gcc/score-elf/4.2.1/mel\libgcc.a
LOAD c:/sunplus/s_core~1.1/gnu/bin/../lib/gcc/score-elf/4.2.1/../../../../score-elf/lib/mel\libc.a
LOAD c:/sunplus/s_core~1.1/gnu/bin/../lib/gcc/score-elf/4.2.1/mel\libgcc.a
START GROUP
LOAD c:/sunplus/s_core~1.1/gnu/bin/../lib/gcc/score-elf/4.2.1/../../../../score-elf/lib/mel\libc.a
LOAD c:/sunplus/s_core~1.1/gnu/bin/../lib/gcc/score-elf/4.2.1/../../../../score-elf/lib/mel\libm.a
LOAD c:/sunplus/s_core~1.1/gnu/bin/../lib/gcc/score-elf/4.2.1/mel\libgcc.a
END GROUP

.exception      0x00000000a00901fc      0x304
 *(.exception_vec)
 .exception_vec
                0x00000000a00901fc      0x304 Debug\hyperscan_startup.o
                0x00000000a0090300                hal_interrupt_handlers
                0x00000000a0090400                hal_interrupt_data

.stack          0x00000000a0fffff0        0x0
                0x00000000a0fffff0                _stack = .
 *(.stack)
                0x00000000a0091000                . = 0xa0091000

.interp
 *(.interp)

.hash
 *(.hash)

.dynsym
 *(.dynsym)

.dynstr
 *(.dynstr)

.gnu.version
 *(.gnu.version)

.gnu.version_d
 *(.gnu.version_d)

.gnu.version_r
 *(.gnu.version_r)

.rel.dyn        0x00000000a0091000        0x0
 *(.rel.init)
 *(.rel.text .rel.text.* .rel.gnu.linkonce.t.*)
 *(.rel.fini)
 *(.rel.rodata .rel.rodata.* .rel.gnu.linkonce.r.*)
 *(.rel.data .rel.data.* .rel.gnu.linkonce.d.*)
 *(.rel.tdata .rel.tdata.* .rel.gnu.linkonce.td.*)
 *(.rel.tbss .rel.tbss.* .rel.gnu.linkonce.tb.*)
 *(.rel.ctors)
 *(.rel.dtors)
 *(.rel.got)
 *(.rel.sdata .rel.sdata.* .rel.gnu.linkonce.s.*)
 *(.rel.sbss .rel.sbss.* .rel.gnu.linkonce.sb.*)
 *(.rel.sdata2 .rel.sdata2.* .rel.gnu.linkonce.s2.*)
 *(.rel.sbss2 .rel.sbss2.* .rel.gnu.linkonce.sb2.*)
 *(.rel.bss .rel.bss.* .rel.gnu.linkonce.b.*)
 .rel.dyn       0x0000000000000000        0x0 Debug\hyperscan_startup.o

.rela.dyn
 *(.rela.init)
 *(.rela.text .rela.text.* .rela.gnu.linkonce.t.*)
 *(.rela.fini)
 *(.rela.rodata .rela.rodata.* .rela.gnu.linkonce.r.*)
 *(.rela.data .rela.data.* .rela.gnu.linkonce.d.*)
 *(.rela.tdata .rela.tdata.* .rela.gnu.linkonce.td.*)
 *(.rela.tbss .rela.tbss.* .rela.gnu.linkonce.tb.*)
 *(.rela.ctors)
 *(.rela.dtors)
 *(.rela.got)
 *(.rela.sdata .rela.sdata.* .rela.gnu.linkonce.s.*)
 *(.rela.sbss .rela.sbss.* .rela.gnu.linkonce.sb.*)
 *(.rela.sdata2 .rela.sdata2.* .rela.gnu.linkonce.s2.*)
 *(.rela.sbss2 .rela.sbss2.* .rela.gnu.linkonce.sb2.*)
 *(.rela.bss .rela.bss.* .rela.gnu.linkonce.b.*)

.rel.plt
 *(.rel.plt)

.rela.plt
 *(.rela.plt)

.hardware_init  0x00000000a0091000      0x230
 *(.hardware_init)
 .hardware_init
                0x00000000a0091000      0x230 Debug\hyperscan_startup.o
                0x00000000a0091000                _hardware_init
                0x00000000a0091098                general_service
                0x00000000a009122c                hal_default_isr
                0x00000000a0091094                norm_debug_service

.init
 *(.init)

.plt
 *(.plt)

.text           0x00000000a0091230    0x5f764
 *(.text .stub .text.* .gnu.linkonce.t.*)
 .text          0x00000000a0091230        0x0 Debug\hyperscan_startup.o
 .text          0x00000000a0091230      0x9bc Debug\z_zone.o
                0x00000000a00914c0                Z_Malloc
                0x00000000a0091370                Z_Free
                0x00000000a00916b4                Z_FreeTags
                0x00000000a0091a78                Z_ChangeTag2
                0x00000000a00919b8                Z_CheckHeap
                0x00000000a0091884                Z_FileDumpHeap
                0x00000000a0091b0c                Z_ChangeUser
                0x00000000a0091734                Z_DumpHeap
                0x00000000a0091b60                Z_FreeMemory
                0x00000000a00912bc                Z_Init
                0x00000000a0091bd8                Z_ZoneSize
                0x00000000a0091230                Z_ClearZone
 .text          0x00000000a0091bec     0x3c40 Debug\wi_stuff.o
                0x00000000a00935bc                WI_initNetgameStats
                0x00000000a0092ba0                WI_drawNoState
                0x00000000a0095578                WI_loadData
                0x00000000a00929b8                WI_updateNoState
                0x00000000a0092624                WI_drawNum
                0x00000000a0091c20                WI_drawLF
                0x00000000a0093214                WI_drawDeathmatchStats
                0x00000000a0095644                WI_unloadData
                0x00000000a0092a20                WI_updateShowNextLoc
                0x00000000a00927e0                WI_drawPercent
                0x00000000a0094da8                WI_checkForAccelerate
                0x00000000a00922f8                WI_updateAnimatedBack
                0x00000000a00957cc                WI_Start
                0x00000000a0093f10                WI_drawNetgameStats
                0x00000000a00921a8                WI_initAnimatedBack
                0x00000000a0092bc0                WI_fragSum
                0x00000000a00944fc                WI_updateStats
                0x00000000a0092d78                WI_updateDeathmatchStats
                0x00000000a0092c90                WI_initDeathmatchStats
                0x00000000a00956f8                WI_initVariables
                0x00000000a0091f30                WI_drawOnLnode
                0x00000000a0094474                WI_initStats
                0x00000000a0092994                WI_initNoState
                0x00000000a0094c58                WI_drawStats
                0x00000000a0094e9c                WI_Ticker
                0x00000000a0091c10                WI_Responder
                0x00000000a0092978                WI_End
                0x00000000a0091de0                WI_drawEL
                0x00000000a0092824                WI_drawTime
                0x00000000a0095668                WI_Drawer
                0x00000000a00936f4                WI_updateNetgameStats
                0x00000000a0091bec                WI_slamBackground
                0x00000000a0092a88                WI_drawShowNextLoc
                0x00000000a0092540                WI_drawAnimatedBack
                0x00000000a00929f0                WI_initShowNextLoc
 .text          0x00000000a009582c      0xd24 Debug\w_wad.o
                0x00000000a0096044                W_ReadLump
                0x00000000a009582c                W_LumpNameHash
                0x00000000a009621c                W_CacheLumpName
                0x00000000a0095f98                W_GetNumForName
                0x00000000a009624c                W_ReleaseLumpNum
                0x00000000a00962d8                W_ReleaseLumpName
                0x00000000a0095ae8                W_AddFile
                0x00000000a0096300                W_GenerateHashTable
                0x00000000a0095e4c                W_CheckNumForName
                0x00000000a0095e34                W_NumLumps
                0x00000000a0096454                W_CheckCorrectIWAD
                0x00000000a0096114                W_CacheLumpNum
                0x00000000a0095fe0                W_LumpLength
 .text          0x00000000a0096550       0xd4 Debug\w_main.o
                0x00000000a0096550                W_ParseCommandLine
 .text          0x00000000a0096624      0x110 Debug\w_file_stdc.o
                0x00000000a00966e4                W_StdC_Read
 .text          0x00000000a0096734       0xf8 Debug\w_file.o
                0x00000000a00967d0                W_CloseFile
                0x00000000a00967f4                W_Read
                0x00000000a0096734                W_OpenFile
 .text          0x00000000a009682c      0x1bc Debug\w_checksum.o
                0x00000000a0096958                W_Checksum
 .text          0x00000000a00969e8     0x1d08 Debug\v_video.o
                0x00000000a00974f4                V_DrawXlaPatch
                0x00000000a0097d40                V_DrawBlock
                0x00000000a00969e8                V_MarkRect
                0x00000000a0097fb0                V_DrawBox
                0x00000000a0097258                V_DrawTLPatch
                0x00000000a0096f30                V_DrawPatchFlipped
                0x00000000a0097d08                V_LoadXlaTable
                0x00000000a0096b70                V_SetPatchClipCallback
                0x00000000a0098490                V_DrawMouseSpeedBox
                0x00000000a0097734                V_DrawAltTLPatch
                0x00000000a0098080                WritePCXfile
                0x00000000a0097eb0                V_DrawHorizLine
                0x00000000a0098044                V_Init
                0x00000000a0098018                V_DrawRawScreen
                0x00000000a0096a58                V_CopyRect
                0x00000000a0097230                V_DrawPatchDirect
                0x00000000a0097cd0                V_LoadTintTable
                0x00000000a0098050                V_UseBuffer
                0x00000000a0097e08                V_DrawFilledBox
                0x00000000a0098064                V_RestoreBuffer
                0x00000000a0097f30                V_DrawVertLine
                0x00000000a0096b84                V_DrawPatch
                0x00000000a00979d0                V_DrawShadowedPatch
                0x00000000a00983c0                V_ScreenShot
 .text          0x00000000a00986f0       0x68 Debug\tables.o
                0x00000000a00986f0                SlopeDiv
 .text          0x00000000a0098758       0x8c Debug\statdump.o
                0x00000000a00987d8                StatDump
                0x00000000a0098758                StatCopy
 .text          0x00000000a00987e4     0x22ac Debug\st_stuff.o
                0x00000000a009a9e8                ST_Start
                0x00000000a00999c4                ST_Ticker
                0x00000000a009a49c                ST_createWidgets
                0x00000000a009aa20                ST_Stop
                0x00000000a009a344                ST_unloadGraphics
                0x00000000a009a2ec                ST_loadData
                0x00000000a009a368                ST_unloadData
                0x00000000a0099d40                ST_doRefresh
                0x00000000a0099a04                ST_doPaletteStuff
                0x00000000a0099d84                ST_Drawer
                0x00000000a009a2c8                ST_loadGraphics
                0x00000000a00987e4                ST_refreshBackground
                0x00000000a009a384                ST_initData
                0x00000000a0099d68                ST_diffDraw
                0x00000000a0098870                ST_Responder
                0x00000000a0099748                ST_updateWidgets
                0x00000000a009aa60                ST_Init
                0x00000000a0099b74                ST_drawWidgets
                0x00000000a0099280                ST_calcPainOffset
                0x00000000a009930c                ST_updateFaceWidget
 .text          0x00000000a009aa90      0x850 Debug\st_lib.o
                0x00000000a009aac0                STlib_initNum
                0x00000000a009b0f0                STlib_initBinIcon
                0x00000000a009aed4                STlib_updateMultIcon
                0x00000000a009ae30                STlib_updatePercent
                0x00000000a009ae8c                STlib_initMultIcon
                0x00000000a009adb0                STlib_updateNum
                0x00000000a009ab0c                STlib_drawNum
                0x00000000a009ade4                STlib_initPercent
                0x00000000a009b134                STlib_updateBinIcon
                0x00000000a009aa90                STlib_init
 .text          0x00000000a009b2e0        0x0 Debug\sounds.o
 .text          0x00000000a009b2e0     0x269c Debug\sha1.o
                0x00000000a009d940                SHA1_UpdateString
                0x00000000a009b2e0                SHA1_Init
                0x00000000a009d318                SHA1_Update
                0x00000000a009d498                SHA1_Final
                0x00000000a009d8ec                SHA1_UpdateInt32
 .text          0x00000000a009d97c      0xe60 Debug\s_sound.o
                0x00000000a009e104                S_StartSound
                0x00000000a009d97c                S_Init
                0x00000000a009e3c0                S_ResumeSound
                0x00000000a009e594                S_SetSfxVolume
                0x00000000a009dbac                S_Start
                0x00000000a009e770                S_StopMusic
                0x00000000a009e750                S_MusicPlaying
                0x00000000a009e5e0                S_StartMusic
                0x00000000a009e600                S_ChangeMusic
                0x00000000a009e3fc                S_UpdateSounds
                0x00000000a009dcd8                S_StopSound
                0x00000000a009e548                S_SetMusicVolume
                0x00000000a009dab0                S_Shutdown
                0x00000000a009e384                S_PauseSound
 .text          0x00000000a009e7dc     0x200c Debug\r_things.o
                0x00000000a009f4ec                R_ProjectSprite
                0x00000000a009ff54                R_DrawPlayerSprites
                0x00000000a009f03c                R_DrawMaskedColumn
                0x00000000a009ef78                R_InitSprites
                0x00000000a00a0240                R_DrawSprite
                0x00000000a009e7dc                R_InstallSpriteLump
                0x00000000a009efe4                R_NewVisSprite
                0x00000000a00a0068                R_SortVisSprites
                0x00000000a009efcc                R_ClearSprites
                0x00000000a009fa84                R_AddSprites
                0x00000000a009eaec                R_InitSpriteDefs
                0x00000000a00a070c                R_DrawMasked
                0x00000000a009f260                R_DrawVisSprite
                0x00000000a009fb7c                R_DrawPSprite
 .text          0x00000000a00a07e8       0x14 Debug\r_sky.o
                0x00000000a00a07e8                R_InitSkyMap
 .text          0x00000000a00a07fc     0x1f18 Debug\r_segs.o
                0x00000000a00a1468                R_StoreWallRange
                0x00000000a00a0d1c                R_RenderSegLoop
                0x00000000a00a07fc                R_RenderMaskedSegRange
 .text          0x00000000a00a2714      0xd24 Debug\r_plane.o
                0x00000000a00a2d10                R_CheckPlane
                0x00000000a00a2720                R_MapPlane
                0x00000000a00a2ab4                R_ClearPlanes
                0x00000000a00a2be4                R_FindPlane
                0x00000000a00a2f78                R_DrawPlanes
                0x00000000a00a2e50                R_MakeSpans
                0x00000000a00a2714                R_InitPlanes
 .text          0x00000000a00a3438     0x13d8 Debug\r_main.o
                0x00000000a00a3eec                R_InitLightTables
                0x00000000a00a37b8                R_PointToAngle
                0x00000000a00a4018                R_ExecuteSetViewSize
                0x00000000a00a3ff0                R_SetViewSize
                0x00000000a00a3438                R_AddPointToBox
                0x00000000a00a44e4                R_Init
                0x00000000a00a47b0                R_RenderPlayerView
                0x00000000a00a3b24                R_ScaleFromGlobalAngle
                0x00000000a00a363c                R_PointOnSegSide
                0x00000000a00a34b8                R_PointOnSide
                0x00000000a00a3b18                R_InitPointToAngle
                0x00000000a00a3a44                R_PointToDist
                0x00000000a00a3a0c                R_PointToAngle2
                0x00000000a00a3c30                R_InitTables
                0x00000000a00a465c                R_SetupFrame
                0x00000000a00a4570                R_PointInSubsector
                0x00000000a00a3c3c                R_InitTextureMapping
 .text          0x00000000a00a4810     0x1444 Debug\r_draw.o
                0x00000000a00a4f10                R_DrawTranslatedColumn
                0x00000000a00a5358                R_DrawSpan
                0x00000000a00a4950                R_DrawColumnLow
                0x00000000a00a4cb0                R_DrawFuzzColumnLow
                0x00000000a00a5784                R_FillBackScreen
                0x00000000a00a4ae4                R_DrawFuzzColumn
                0x00000000a00a5060                R_DrawTranslatedColumnLow
                0x00000000a00a5acc                R_VideoErase
                0x00000000a00a5b20                R_DrawViewBorder
                0x00000000a00a54cc                R_DrawSpanLow
                0x00000000a00a523c                R_InitTranslationTables
                0x00000000a00a5690                R_InitBuffer
                0x00000000a00a4810                R_DrawColumn
 .text          0x00000000a00a5c54     0x1958 Debug\r_data.o
                0x00000000a00a5c54                R_DrawColumnInCache
                0x00000000a00a6c2c                R_InitFlats
                0x00000000a00a5d24                R_GenerateComposite
                0x00000000a00a6504                R_InitTextures
                0x00000000a00a7028                R_TextureNumForName
                0x00000000a00a6ce0                R_InitSpriteLumps
                0x00000000a00a7070                R_PrecacheLevel
                0x00000000a00a6f7c                R_CheckTextureNumForName
                0x00000000a00a62f4                R_GetColumn
                0x00000000a00a6ed4                R_InitData
                0x00000000a00a6e9c                R_InitColormaps
                0x00000000a00a5f70                R_GenerateLookup
                0x00000000a00a6f14                R_FlatNumForName
 .text          0x00000000a00a75ac      0xc98 Debug\r_bsp.o
                0x00000000a00a75c4                R_ClipSolidWallSegment
                0x00000000a00a75ac                R_ClearDrawSegs
                0x00000000a00a7900                R_AddLine
                0x00000000a00a7bc0                R_CheckBBox
                0x00000000a00a7f2c                R_Subsector
                0x00000000a00a8124                R_RenderBSPNode
                0x00000000a00a7898                R_ClearClipSegs
                0x00000000a00a779c                R_ClipPassWallSegment
 .text          0x00000000a00a8244      0xad0 Debug\p_user.o
                0x00000000a00a82ec                P_CalcHeight
                0x00000000a00a8244                P_Thrust
                0x00000000a00a88c4                P_PlayerThink
                0x00000000a00a8598                P_MovePlayer
                0x00000000a00a86cc                P_DeathThink
 .text          0x00000000a00a8d14      0x260 Debug\p_tick.o
                0x00000000a00a8d14                P_InitThinkers
                0x00000000a00a8dc4                P_RunThinkers
                0x00000000a00a8d4c                P_AddThinker
                0x00000000a00a8e5c                P_Ticker
                0x00000000a00a8db8                P_AllocateThinker
                0x00000000a00a8da0                P_RemoveThinker
 .text          0x00000000a00a8f74      0x338 Debug\p_telept.o
                0x00000000a00a8f74                EV_Teleport
 .text          0x00000000a00a92ac      0xd78 Debug\p_switch.o
                0x00000000a00a9458                P_StartButton
                0x00000000a00a95e4                P_ChangeSwitchTexture
                0x00000000a00a92ac                P_InitSwitchList
                0x00000000a00a9918                P_UseSpecialLine
 .text          0x00000000a00aa024     0x1c3c Debug\p_spec.o
                0x00000000a00aa024                P_InitPicAnims
                0x00000000a00aa6e0                P_FindHighestCeilingSurrounding
                0x00000000a00ab6e0                EV_DoDonut
                0x00000000a00aa220                getSide
                0x00000000a00aa508                P_FindNextHighestFloor
                0x00000000a00ab11c                P_UpdateSpecials
                0x00000000a00aa400                P_FindLowestFloorSurrounding
                0x00000000a00aa654                P_FindLowestCeilingSurrounding
                0x00000000a00aa394                getNextSector
                0x00000000a00aa2a8                getSector
                0x00000000a00ab938                P_SpawnSpecials
                0x00000000a00aa764                P_FindSectorFromLineTag
                0x00000000a00aa808                P_FindMinSurroundingLight
                0x00000000a00aae94                P_ShootSpecialLine
                0x00000000a00aa484                P_FindHighestFloorSurrounding
                0x00000000a00aa89c                P_CrossSpecialLine
                0x00000000a00aaf58                P_PlayerInSpecialSector
                0x00000000a00aa334                twoSided
 .text          0x00000000a00abc60      0x960 Debug\p_sight.o
                0x00000000a00ac364                P_CheckSight
                0x00000000a00abc60                P_DivlineSide
                0x00000000a00abdd8                P_InterceptVector2
                0x00000000a00ac214                P_CrossBSPNode
                0x00000000a00abeb4                P_CrossSubsector
 .text          0x00000000a00ac5c0     0x1d70 Debug\p_setup.o
                0x00000000a00ac728                P_LoadSegs
                0x00000000a00acfc8                P_LoadThings
                0x00000000a00ac5c0                P_LoadVertexes
                0x00000000a00ad8e8                P_GroupLines
                0x00000000a00ae304                P_Init
                0x00000000a00ac6b8                GetSectorAtNullAddress
                0x00000000a00ad198                P_LoadLineDefs
                0x00000000a00adf60                P_SetupLevel
                0x00000000a00ad7a8                P_LoadBlockMap
                0x00000000a00acb4c                P_LoadSectors
                0x00000000a00acd6c                P_LoadNodes
                0x00000000a00aca44                P_LoadSubsectors
                0x00000000a00ad5bc                P_LoadSideDefs
 .text          0x00000000a00ae330     0x2ffc Debug\p_saveg.o
                0x00000000a00b0710                P_ArchivePlayers
                0x00000000a00b0cc4                P_ArchiveThinkers
                0x00000000a00b0870                P_ArchiveWorld
                0x00000000a00b0eb8                P_ArchiveSpecials
                0x00000000a00ae38c                P_SaveGameFile
                0x00000000a00b06bc                P_ReadSaveGameEOF
                0x00000000a00b0ab0                P_UnArchiveWorld
                0x00000000a00b10c8                P_UnArchiveSpecials
                0x00000000a00b0d40                P_UnArchiveThinkers
                0x00000000a00b06f4                P_WriteSaveGameEOF
                0x00000000a00b0360                P_WriteSaveGameHeader
                0x00000000a00b0790                P_UnArchivePlayers
                0x00000000a00ae330                P_TempSaveGameFile
                0x00000000a00b0528                P_ReadSaveGameHeader
 .text          0x00000000a00b132c     0x1790 Debug\p_pspr.o
                0x00000000a00b29a4                P_SetupPsprites
                0x00000000a00b2508                A_FireShotgun2
                0x00000000a00b15a0                P_CheckAmmo
                0x00000000a00b22bc                P_GunShot
                0x00000000a00b1e28                A_Saw
                0x00000000a00b1b30                A_CheckReload
                0x00000000a00b1504                P_BringUpWeapon
                0x00000000a00b1bf0                A_Raise
                0x00000000a00b2184                A_FirePlasma
                0x00000000a00b20dc                A_FireMissile
                0x00000000a00b2220                P_BulletSlope
                0x00000000a00b297c                A_BFGsound
                0x00000000a00b2684                A_FireCGun
                0x00000000a00b2130                A_FireBFG
                0x00000000a00b1b50                A_Lower
                0x00000000a00b2818                A_Light2
                0x00000000a00b1ccc                A_Punch
                0x00000000a00b1888                P_DropWeapon
                0x00000000a00b237c                A_FirePistol
                0x00000000a00b1428                P_CalcSwing
                0x00000000a00b132c                P_SetPsprite
                0x00000000a00b2440                A_FireShotgun
                0x00000000a00b180c                P_FireWeapon
                0x00000000a00b18d0                A_WeaponReady
                0x00000000a00b27e8                A_Light0
                0x00000000a00b1c74                A_GunFlash
                0x00000000a00b2a04                P_MovePsprites
                0x00000000a00b2800                A_Light1
                0x00000000a00b1aa8                A_ReFire
                0x00000000a00b2830                A_BFGSpray
 .text          0x00000000a00b2abc      0x974 Debug\p_plats.o
                0x00000000a00b2d34                EV_DoPlat
                0x00000000a00b31ec                EV_StopPlat
                0x00000000a00b2abc                T_PlatRaise
                0x00000000a00b3100                P_ActivateInStasis
                0x00000000a00b3374                P_RemoveActivePlat
                0x00000000a00b32f8                P_AddActivePlat
 .text          0x00000000a00b3430     0x22cc Debug\p_mobj.o
                0x00000000a00b43c4                P_RemoveMobj
                0x00000000a00b4a84                P_SpawnMapThing
                0x00000000a00b534c                P_SpawnMissile
                0x00000000a00b3500                P_ExplodeMissile
                0x00000000a00b41a4                P_SpawnMobj
                0x00000000a00b5210                P_CheckMissileSpawn
                0x00000000a00b507c                P_SpawnPuff
                0x00000000a00b5544                P_SpawnPlayerMissile
                0x00000000a00b3430                P_SetMobjState
                0x00000000a00b404c                P_MobjThinker
                0x00000000a00b52f4                P_SubstNullMobj
                0x00000000a00b4728                P_SpawnPlayer
                0x00000000a00b3e84                P_NightmareRespawn
                0x00000000a00b5138                P_SpawnBlood
                0x00000000a00b3aa8                P_ZMovement
                0x00000000a00b35fc                P_XYMovement
                0x00000000a00b44c4                P_RespawnSpecials
 .text          0x00000000a00b56fc     0x17f4 Debug\p_maputl.o
                0x00000000a00b67c4                P_TraverseIntercepts
                0x00000000a00b5e04                P_UnsetThingPosition
                0x00000000a00b58b8                P_BoxOnLineSide
                0x00000000a00b5c1c                P_MakeDivline
                0x00000000a00b6ac8                P_PathTraverse
                0x00000000a00b5c68                P_InterceptVector
                0x00000000a00b5d44                P_LineOpening
                0x00000000a00b5fa8                P_SetThingPosition
                0x00000000a00b62b0                P_BlockThingsIterator
                0x00000000a00b6154                P_BlockLinesIterator
                0x00000000a00b65bc                PIT_AddThingIntercepts
                0x00000000a00b5a88                P_PointOnDivlineSide
                0x00000000a00b5780                P_PointOnLineSide
                0x00000000a00b56fc                P_AproxDistance
                0x00000000a00b6388                PIT_AddLineIntercepts
 .text          0x00000000a00b6ef0     0x2620 Debug\p_map.o
                0x00000000a00b7ac4                P_TryMove
                0x00000000a00b7cec                P_ThingHeightClip
                0x00000000a00b7de4                P_HitSlideLine
                0x00000000a00b9324                P_ChangeSector
                0x00000000a00b77b4                P_CheckPosition
                0x00000000a00b9084                P_RadiusAttack
                0x00000000a00b7f6c                PTR_SlideTraverse
                0x00000000a00b8700                PTR_ShootTraverse
                0x00000000a00b8b94                P_AimLineAttack
                0x00000000a00b6fe8                P_TeleportMove
                0x00000000a00b8098                P_SlideMove
                0x00000000a00b8de8                PTR_UseTraverse
                0x00000000a00b8f60                PIT_RadiusAttack
                0x00000000a00b8ce4                P_LineAttack
                0x00000000a00b919c                PIT_ChangeSector
                0x00000000a00b722c                PIT_CheckLine
                0x00000000a00b7434                PIT_CheckThing
                0x00000000a00b6ef0                PIT_StompThing
                0x00000000a00b8eac                P_UseLines
                0x00000000a00b841c                PTR_AimTraverse
 .text          0x00000000a00b9510      0x8a8 Debug\p_lights.o
                0x00000000a00b9d2c                P_SpawnGlowingLight
                0x00000000a00b9664                T_LightFlash
                0x00000000a00b987c                P_SpawnStrobeFlash
                0x00000000a00b97d8                T_StrobeFlash
                0x00000000a00b95d4                P_SpawnFireFlicker
                0x00000000a00b99e0                EV_TurnTagLightsOff
                0x00000000a00b9510                T_FireFlicker
                0x00000000a00b9960                EV_StartLightStrobing
                0x00000000a00b972c                P_SpawnLightFlash
                0x00000000a00b9ae8                EV_LightTurnOn
                0x00000000a00b9bf0                T_Glow
 .text          0x00000000a00b9db8     0x1a6c Debug\p_inter.o
                0x00000000a00b9db8                P_GiveAmmo
                0x00000000a00ba06c                P_GiveWeapon
                0x00000000a00ba3dc                P_GivePower
                0x00000000a00ba398                P_GiveCard
                0x00000000a00ba2bc                P_GiveBody
                0x00000000a00bb2ac                P_DamageMobj
                0x00000000a00baeac                P_KillMobj
                0x00000000a00ba514                P_TouchSpecialThing
                0x00000000a00ba334                P_GiveArmor
 .text          0x00000000a00bb824      0xdcc Debug\p_floor.o
                0x00000000a00bc2f4                EV_BuildStairs
                0x00000000a00bbb28                T_MoveFloor
                0x00000000a00bb824                T_MovePlane
                0x00000000a00bbc90                EV_DoFloor
 .text          0x00000000a00bc5f0     0x39a4 Debug\p_enemy.o
                0x00000000a00bd44c                A_Chase
                0x00000000a00beee8                A_SkullAttack
                0x00000000a00bc5f0                P_RecursiveSound
                0x00000000a00bf3ac                A_XScream
                0x00000000a00bc8cc                P_CheckMissileRange
                0x00000000a00bfb88                A_BrainExplode
                0x00000000a00bdc74                A_BspiAttack
                0x00000000a00bfc70                A_BrainSpit
                0x00000000a00bdd5c                A_SargAttack
                0x00000000a00bf910                A_BabyMetal
                0x00000000a00bdfa8                A_SkelMissile
                0x00000000a00bfaa0                A_BrainScream
                0x00000000a00beb74                A_FatAttack1
                0x00000000a00bfd84                A_SpawnFly
                0x00000000a00bcce8                P_TryWalk
                0x00000000a00bd2a4                A_Look
                0x00000000a00bf204                A_PainAttack
                0x00000000a00bed6c                A_FatAttack3
                0x00000000a00bda80                A_CPosAttack
                0x00000000a00bdcb8                A_TroopAttack
                0x00000000a00be068                A_Tracer
                0x00000000a00bf938                A_OpenShotgun2
                0x00000000a00bf058                A_PainShootSkull
                0x00000000a00bf244                A_PainDie
                0x00000000a00bf40c                A_Fall
                0x00000000a00bf2a0                A_Scream
                0x00000000a00be384                A_SkelWhoosh
                0x00000000a00be844                A_FireCrackle
                0x00000000a00bf430                A_Explode
                0x00000000a00be5d0                A_VileChase
                0x00000000a00bcd38                P_NewChaseDir
                0x00000000a00bd88c                A_PosAttack
                0x00000000a00bfd5c                A_SpawnSound
                0x00000000a00bf8c0                A_Hoof
                0x00000000a00bc810                P_CheckMeleeRange
                0x00000000a00bf3cc                A_Pain
                0x00000000a00be7fc                A_VileStart
                0x00000000a00bdec4                A_CyberAttack
                0x00000000a00bd1f8                A_KeenDie
                0x00000000a00bea00                A_VileAttack
                0x00000000a00bfc54                A_BrainDie
                0x00000000a00bf9b8                A_BrainAwake
                0x00000000a00be86c                A_Fire
                0x00000000a00be478                PIT_VileCheck
                0x00000000a00bde00                A_HeadAttack
                0x00000000a00bf988                A_CloseShotgun2
                0x00000000a00bc7c0                P_NoiseAlert
                0x00000000a00bdbf0                A_SpidRefire
                0x00000000a00be3bc                A_SkelFist
                0x00000000a00beb4c                A_FatRaise
                0x00000000a00bec70                A_FatAttack2
                0x00000000a00bf8e8                A_Metal
                0x00000000a00bd7c4                A_FaceTarget
                0x00000000a00bd05c                P_LookForPlayers
                0x00000000a00bdf08                A_BruisAttack
                0x00000000a00bf960                A_LoadShotgun2
                0x00000000a00be974                A_VileTarget
                0x00000000a00bfa80                A_BrainPain
                0x00000000a00bca8c                P_Move
                0x00000000a00bd978                A_SPosAttack
                0x00000000a00bff48                A_PlayerScream
                0x00000000a00bdb6c                A_CPosRefire
                0x00000000a00be81c                A_StartFire
                0x00000000a00bf634                A_BossDeath
 .text          0x00000000a00bff94      0xcbc Debug\p_doors.o
                0x00000000a00c02e8                EV_DoLockedDoor
                0x00000000a00c06e0                EV_VerticalDoor
                0x00000000a00c0ba0                P_SpawnDoorRaiseIn5Mins
                0x00000000a00c0448                EV_DoDoor
                0x00000000a00bff94                T_VerticalDoor
                0x00000000a00c0b20                P_SpawnDoorCloseIn30
 .text          0x00000000a00c0c50      0x784 Debug\p_ceilng.o
                0x00000000a00c12bc                EV_CeilingCrushStop
                0x00000000a00c0eb0                EV_DoCeiling
                0x00000000a00c0c50                T_MoveCeiling
                0x00000000a00c11c4                P_ActivateInStasisCeiling
                0x00000000a00c1114                P_RemoveActiveCeiling
                0x00000000a00c10a4                P_AddActiveCeiling
 .text          0x00000000a00c13d4      0xf0c Debug\mus2mid.o
                0x00000000a00c1cac                mus2mid
 .text          0x00000000a00c22e0      0x3f0 Debug\memio.o
                0x00000000a00c25f0                mem_ftell
                0x00000000a00c2470                mem_fwrite
                0x00000000a00c25b4                mem_fclose
                0x00000000a00c2408                mem_fopen_write
                0x00000000a00c2590                mem_get_buf
                0x00000000a00c2604                mem_fseek
                0x00000000a00c22e0                mem_fopen_read
                0x00000000a00c232c                mem_fread
 .text          0x00000000a00c26d0       0xc8 Debug\m_random.o
                0x00000000a00c271c                M_Random
                0x00000000a00c2768                M_ClearRandom
                0x00000000a00c26d0                P_Random
 .text          0x00000000a00c2798      0xa60 Debug\m_misc.o
                0x00000000a00c2a94                M_ExtractFileBase
                0x00000000a00c2f84                M_StringStartsWith
                0x00000000a00c27c4                M_FileExists
                0x00000000a00c2798                M_MakeDirectory
                0x00000000a00c2998                M_TempFile
                0x00000000a00c2eac                M_StringCopy
                0x00000000a00c2f30                M_StringConcat
                0x00000000a00c28ec                M_ReadFile
                0x00000000a00c29e4                M_StrToInt
                0x00000000a00c2828                M_FileLength
                0x00000000a00c3140                M_vsnprintf
                0x00000000a00c2c5c                M_StrCaseStr
                0x00000000a00c2874                M_WriteFile
                0x00000000a00c2fec                M_StringEndsWith
                0x00000000a00c31c0                M_snprintf
                0x00000000a00c306c                M_StringJoin
                0x00000000a00c2bd0                M_ForceUppercase
                0x00000000a00c2d50                M_StringReplace
                0x00000000a00c2d00                M_StringDuplicate
 .text          0x00000000a00c31f8     0x31e0 Debug\m_menu.o
                0x00000000a00c490c                M_DrawSelCell
                0x00000000a00c6208                M_ClearMenus
                0x00000000a00c4974                M_StartMessage
                0x00000000a00c43b0                M_ReadThis2
                0x00000000a00c430c                M_EndGame
                0x00000000a00c4ad4                M_StringHeight
                0x00000000a00c5e98                M_Drawer
                0x00000000a00c36ac                M_DoSave
                0x00000000a00c49d4                M_StringWidth
                0x00000000a00c45ec                M_ChangeSensitivity
                0x00000000a00c399c                M_QuickLoad
                0x00000000a00c6290                M_Init
                0x00000000a00c3c9c                M_SfxVol
                0x00000000a00c34f8                M_LoadGame
                0x00000000a00c3ff0                M_Episode
                0x00000000a00c3548                M_DrawSave
                0x00000000a00c6240                M_Ticker
                0x00000000a00c3a54                M_DrawReadThis1
                0x00000000a00c5e5c                M_StartControlPanel
                0x00000000a00c33f8                M_DrawSaveLoadBorder
                0x00000000a00c384c                M_QuickSaveResponse
                0x00000000a00c34b0                M_LoadSelect
                0x00000000a00c48a4                M_DrawEmptyCell
                0x00000000a00c4b6c                M_WriteText
                0x00000000a00c388c                M_QuickSave
                0x00000000a00c3bc4                M_DrawSound
                0x00000000a00c4728                M_SizeDisplay
                0x00000000a00c3e88                M_NewGame
                0x00000000a00c3f20                M_DrawEpisode
                0x00000000a00c440c                M_FinishReadThis
                0x00000000a00c395c                M_QuickLoadResponse
                0x00000000a00c4d08                M_Responder
                0x00000000a00c31f8                M_ReadSaveStrings
                0x00000000a00c4220                M_ChangeMessages
                0x00000000a00c47c4                M_DrawThermo
                0x00000000a00c3b8c                M_DrawReadThis2
                0x00000000a00c3f54                M_VerifyNightmare
                0x00000000a00c4388                M_ReadThis
                0x00000000a00c49b8                M_StopMessage
                0x00000000a00c621c                M_SetupNextMenu
                0x00000000a00c3f98                M_ChooseSkill
                0x00000000a00c41fc                M_Options
                0x00000000a00c4658                M_ChangeDetail
                0x00000000a00c4434                M_QuitResponse
                0x00000000a00c3e38                M_DrawNewGame
                0x00000000a00c3318                M_DrawLoad
                0x00000000a00c3d50                M_MusicVol
                0x00000000a00c42c8                M_EndGameResponse
                0x00000000a00c3c78                M_Sound
                0x00000000a00c4598                M_QuitDOOM
                0x00000000a00c3704                M_SaveSelect
                0x00000000a00c37e8                M_SaveGame
                0x00000000a00c3e04                M_DrawMainMenu
                0x00000000a00c40a0                M_DrawOptions
 .text          0x00000000a00c63d8      0x11c Debug\m_fixed.o
                0x00000000a00c63d8                FixedMul
                0x00000000a00c6438                FixedDiv
 .text          0x00000000a00c64f4      0xa54 Debug\m_controls.o
                0x00000000a00c6a6c                M_BindWeaponControls
                0x00000000a00c6ca4                M_BindMenuControls
                0x00000000a00c6f3c                M_ApplyPlatformDefaults
                0x00000000a00c6b9c                M_BindMapControls
                0x00000000a00c64f4                M_BindBaseControls
                0x00000000a00c67f4                M_BindHexenControls
                0x00000000a00c6728                M_BindHereticControls
                0x00000000a00c68e8                M_BindStrifeControls
                0x00000000a00c6eb0                M_BindChatControls
 .text          0x00000000a00c6f48      0x7d4 Debug\m_config.o
                0x00000000a00c7190                M_SaveDefaults
                0x00000000a00c761c                M_SetConfigDir
                0x00000000a00c751c                M_GetStrVariable
                0x00000000a00c7170                M_SetConfigFilenames
                0x00000000a00c7230                M_LoadDefaults
                0x00000000a00c7450                M_SetVariable
                0x00000000a00c7580                M_GetFloatVariable
                0x00000000a00c71c0                M_SaveDefaultsAlternate
                0x00000000a00c74a8                M_GetIntVariable
                0x00000000a00c768c                M_GetSaveGameDir
                0x00000000a00c741c                M_BindVariable
 .text          0x00000000a00c771c      0x178 Debug\m_cheat.o
                0x00000000a00c771c                cht_CheckCheat
                0x00000000a00c7864                cht_GetParam
 .text          0x00000000a00c7894       0xc0 Debug\m_bbox.o
                0x00000000a00c7894                M_ClearBox
                0x00000000a00c78d0                M_AddToBox
 .text          0x00000000a00c7954      0x1a0 Debug\m_argv.o
                0x00000000a00c7954                M_CheckParmWithArgs
                0x00000000a00c7a3c                M_FindResponseFile
                0x00000000a00c7aa0                M_GetExecutableName
                0x00000000a00c79d4                M_ParmExists
                0x00000000a00c7a0c                M_CheckParm
 .text          0x00000000a00c7af4        0x0 Debug\info.o
 .text          0x00000000a00c7af4        0x0 Debug\icon.o
 .text          0x00000000a00c7af4      0xb18 Debug\i_video.o
                0x00000000a00c80a4                I_ShutdownGraphics
                0x00000000a00c85dc                I_EnableLoadingDisk
                0x00000000a00c80d8                I_StartTic
                0x00000000a00c85f4                I_DisplayFPSDots
                0x00000000a00c85d0                I_SetGrabMouseCallback
                0x00000000a00c7bd8                cmap_to_fb
                0x00000000a00c8600                I_CheckIsScreensaver
                0x00000000a00c80f4                I_UpdateNoBlit
                0x00000000a00c82d8                I_SetPalette
                0x00000000a00c85c4                I_GraphicsCheckCommandLine
                0x00000000a00c82a4                I_ReadScreen
                0x00000000a00c8100                I_FinishUpdate
                0x00000000a00c80cc                I_StartFrame
                0x00000000a00c7d74                I_InitGraphics
                0x00000000a00c7af4                cmap_to_rgb565
                0x00000000a00c8598                I_EndRead
                0x00000000a00c85e8                I_BindVideoVariables
                0x00000000a00c858c                I_BeginRead
                0x00000000a00c8420                I_GetPaletteIndex
                0x00000000a00c85a4                I_SetWindowTitle
 .text          0x00000000a00c860c      0x110 Debug\i_timer.o
                0x00000000a00c8704                I_WaitVBL
                0x00000000a00c86e4                I_Sleep
                0x00000000a00c860c                I_GetTicks
                0x00000000a00c862c                I_GetTime
                0x00000000a00c8710                I_InitTimer
                0x00000000a00c86a0                I_GetTimeMS
 .text          0x00000000a00c871c      0xbfc Debug\i_system.o
                0x00000000a00c8764                I_Tactile
                0x00000000a00c871c                I_AtExit
                0x00000000a00c8ca4                I_ConsoleStdout
                0x00000000a00c87f4                I_ZoneBase
                0x00000000a00c8c6c                I_PrintStartupBanner
                0x00000000a00c8a04                I_PrintDivider
                0x00000000a00c8ea8                I_Error
                0x00000000a00c8cb4                I_Quit
                0x00000000a00c8894                I_PrintBanner
                0x00000000a00c9004                I_GetMemoryValue
 .text          0x00000000a00c9318      0x788 Debug\i_sound.o
                0x00000000a00c946c                I_InitSound
                0x00000000a00c97d4                I_InitMusic
                0x00000000a00c9950                I_StopSong
                0x00000000a00c971c                I_StopSound
                0x00000000a00c974c                I_SoundIsPlaying
                0x00000000a00c98a0                I_RegisterSong
                0x00000000a00c95b8                I_UpdateSound
                0x00000000a00c99c0                I_BindSoundVariables
                0x00000000a00c96bc                I_StartSound
                0x00000000a00c978c                I_PrecacheSounds
                0x00000000a00c9980                I_MusicIsPlaying
                0x00000000a00c98e8                I_UnRegisterSong
                0x00000000a00c9670                I_UpdateSoundParams
                0x00000000a00c9578                I_GetSfxLumpNum
                0x00000000a00c9840                I_PauseSong
                0x00000000a00c9530                I_ShutdownSound
                0x00000000a00c9870                I_ResumeSong
                0x00000000a00c9804                I_ShutdownMusic
                0x00000000a00c9918                I_PlaySong
                0x00000000a00c9810                I_SetMusicVolume
 .text          0x00000000a00c9aa0     0x31e0 Debug\i_scale.o
                0x00000000a00c9aa0                I_InitScale
                0x00000000a00ca9a4                I_ResetScaleTables
 .text          0x00000000a00ccc80      0x138 Debug\i_joystick.o
                0x00000000a00ccca4                I_BindJoystickVariables
                0x00000000a00ccc8c                I_InitJoystick
                0x00000000a00ccc98                I_UpdateJoystick
                0x00000000a00ccc80                I_ShutdownJoystick
 .text          0x00000000a00ccdb8      0x1cc Debug\i_input.o
                0x00000000a00ccea0                I_GetEvent
                0x00000000a00ccf78                I_InitInput
 .text          0x00000000a00ccf84        0xc Debug\i_endoom.o
                0x00000000a00ccf84                I_Endoom
 .text          0x00000000a00ccf90       0x94 Debug\i_cdmus.o
                0x00000000a00ccfcc                I_CDMusResume
                0x00000000a00ccfa0                I_CDMusPrintStartup
                0x00000000a00ccfbc                I_CDMusStop
                0x00000000a00ccfdc                I_CDMusSetVolume
                0x00000000a00ccf90                I_CDMusInit
                0x00000000a00ccff4                I_CDMusFirstTrack
                0x00000000a00cd004                I_CDMusLastTrack
                0x00000000a00ccfac                I_CDMusPlay
                0x00000000a00cd014                I_CDMusTrackLength
 .text          0x00000000a00cd024      0xd18 Debug\hu_stuff.o
                0x00000000a00cd8d4                HU_Responder
                0x00000000a00cd024                HU_Init
                0x00000000a00cd814                HU_queueChatChar
                0x00000000a00cd498                HU_Erase
                0x00000000a00cd874                HU_dequeueChatChar
                0x00000000a00cd0c0                HU_Start
                0x00000000a00cd4d4                HU_Ticker
                0x00000000a00cd444                HU_Drawer
                0x00000000a00cd0ac                HU_Stop
 .text          0x00000000a00cdd3c      0xb70 Debug\hu_lib.o
                0x00000000a00cdd3c                HUlib_init
                0x00000000a00cddb4                HUlib_addCharToTextLine
                0x00000000a00ce73c                HUlib_keyInIText
                0x00000000a00ce678                HUlib_eraseLineFromIText
                0x00000000a00ce818                HUlib_drawIText
                0x00000000a00ce6dc                HUlib_addPrefixToIText
                0x00000000a00ce0a4                HUlib_eraseTextLine
                0x00000000a00cdd48                HUlib_clearTextLine
                0x00000000a00ce6b4                HUlib_resetIText
                0x00000000a00ce300                HUlib_addLineToSText
                0x00000000a00ce5f4                HUlib_initIText
                0x00000000a00cde34                HUlib_delCharFromTextLine
                0x00000000a00ce230                HUlib_initSText
                0x00000000a00cdea0                HUlib_drawTextLine
                0x00000000a00ce498                HUlib_drawSText
                0x00000000a00ce850                HUlib_eraseIText
                0x00000000a00ce640                HUlib_delCharFromIText
                0x00000000a00cdd70                HUlib_initTextLine
                0x00000000a00ce3c0                HUlib_addMessageToSText
                0x00000000a00ce53c                HUlib_eraseSText
 .text          0x00000000a00ce8ac      0x6bc Debug\gusconf.o
                0x00000000a00ceec8                GUS_WriteConfig
 .text          0x00000000a00cef68     0x47a8 Debug\g_game.o
                0x00000000a00d1648                G_DeathMatchSpawnPlayer
                0x00000000a00d2388                G_SaveGame
                0x00000000a00d23c0                G_DoSaveGame
                0x00000000a00d2694                G_InitNew
                0x00000000a00d2d90                G_RecordDemo
                0x00000000a00d2a84                G_ReadDemoTiccmd
                0x00000000a00d0f10                G_PlayerFinishLevel
                0x00000000a00d11ac                G_CheckSpot
                0x00000000a00d3508                G_CheckDemoStatus
                0x00000000a00d2234                G_LoadGame
                0x00000000a00d089c                G_Ticker
                0x00000000a00cef68                G_CmdChecksum
                0x00000000a00d2e74                G_VanillaVersionCode
                0x00000000a00d2ef8                G_BeginRecording
                0x00000000a00d25c8                G_DoNewGame
                0x00000000a00d0fac                G_PlayerReborn
                0x00000000a00d21f0                G_DoWorldDone
                0x00000000a00d1a4c                G_ExitLevel
                0x00000000a00d30c0                G_DeferedPlayDemo
                0x00000000a00d17f0                G_DoReborn
                0x00000000a00d2c30                G_WriteDemoTiccmd
                0x00000000a00d1a38                G_ScreenShot
                0x00000000a00cf278                G_BuildTiccmd
                0x00000000a00d1ac8                G_DoCompleted
                0x00000000a00d0ef0                G_InitPlayer
                0x00000000a00d34b4                G_TimeDemo
                0x00000000a00d1a68                G_SecretExitLevel
                0x00000000a00d0034                G_DoLoadLevel
                0x00000000a00d0488                G_Responder
                0x00000000a00d2134                G_WorldDone
                0x00000000a00d3248                G_DoPlayDemo
                0x00000000a00d2268                G_DoLoadGame
                0x00000000a00d2598                G_DeferedInitNew
 .text          0x00000000a00d3710      0x94c Debug\f_wipe.o
                0x00000000a00d3f04                wipe_EndScreen
                0x00000000a00d37ec                wipe_initColorXForm
                0x00000000a00d3980                wipe_exitColorXForm
                0x00000000a00d3e78                wipe_exitMelt
                0x00000000a00d3828                wipe_doColorXForm
                0x00000000a00d3994                wipe_initMelt
                0x00000000a00d3ebc                wipe_StartScreen
                0x00000000a00d3710                wipe_shittyColMajorXform
                0x00000000a00d3b58                wipe_doMelt
                0x00000000a00d3f60                wipe_ScreenWipe
 .text          0x00000000a00d405c     0x15bc Debug\f_finale.o
                0x00000000a00d405c                F_StartFinale
                0x00000000a00d4dbc                F_CastResponder
                0x00000000a00d4260                F_Responder
                0x00000000a00d4610                F_StartCast
                0x00000000a00d43f0                F_TextWrite
                0x00000000a00d55c0                F_Drawer
                0x00000000a00d429c                F_Ticker
                0x00000000a00d4f10                F_CastPrint
                0x00000000a00d512c                F_CastDrawer
                0x00000000a00d46dc                F_CastTicker
                0x00000000a00d5350                F_BunnyScroll
                0x00000000a00d522c                F_DrawPatchCol
 .text          0x00000000a00d5618        0xc Debug\dummy.o
                0x00000000a00d5618                I_InitTimidityConfig
 .text          0x00000000a00d5624        0x0 Debug\dstrings.o
 .text          0x00000000a00d5624        0x0 Debug\doomstat.o
 .text          0x00000000a00d5624      0x6e0 Debug\doomgeneric_hyperscan.o
                0x00000000a00d58b0                DG_Init
                0x00000000a00d5bfc                DG_GetTicksMs
                0x00000000a00d5bc4                DG_SleepMs
                0x00000000a00d5c30                DG_GetKey
                0x00000000a00d5624                _unlink_r
                0x00000000a00d5cc4                DG_SetWindowTitle
                0x00000000a00d5b14                DG_DrawFrame
                0x00000000a00d5880                disableRawMode
                0x00000000a00d5cd0                main
                0x00000000a00d5648                _link_r
                0x00000000a00d588c                enableRawMode
                0x00000000a00d5898                fake_mmap
 .text          0x00000000a00d5d04       0x60 Debug\doomgeneric.o
                0x00000000a00d5d04                doomgeneric_Create
 .text          0x00000000a00d5d64        0x0 Debug\doomdef.o
 .text          0x00000000a00d5d64      0x784 Debug\d_net.o
                0x00000000a00d62f4                D_ConnectNetGame
                0x00000000a00d635c                D_CheckNetGame
 .text          0x00000000a00d64e8      0x404 Debug\d_mode.o
                0x00000000a00d6710                D_ValidGameVersion
                0x00000000a00d6810                D_GameMissionString
                0x00000000a00d64e8                D_ValidGameMode
                0x00000000a00d67c4                D_IsEpisodeMap
                0x00000000a00d66bc                D_GetNumEpisodes
                0x00000000a00d656c                D_ValidEpisodeMap
 .text          0x00000000a00d68ec     0x2a84 Debug\d_main.o
                0x00000000a00d7ac4                D_SetGameDescription
                0x00000000a00d7208                D_PageTicker
                0x00000000a00d78a4                D_IdentifyVersion
                0x00000000a00d6940                D_Display
                0x00000000a00d7110                D_DoomLoop
                0x00000000a00d726c                D_AdvanceDemo
                0x00000000a00d7280                D_DoAdvanceDemo
                0x00000000a00d723c                D_PageDrawer
                0x00000000a00d7580                D_StartTitle
                0x00000000a00d821c                PrintGameVersion
                0x00000000a00d70a8                doomgeneric_Tick
                0x00000000a00d68ec                D_ProcessEvents
                0x00000000a00d7de8                PrintDehackedBanners
                0x00000000a00d6ffc                D_GrabMouseCallback
                0x00000000a00d8364                D_DoomMain
                0x00000000a00d6e58                D_BindVariables
 .text          0x00000000a00d9370      0xac8 Debug\d_loop.o
                0x00000000a00d96a4                D_ReceiveTic
                0x00000000a00d9808                D_StartNetGame
                0x00000000a00d9860                D_InitNetGame
                0x00000000a00d989c                D_QuitNetGame
                0x00000000a00d97d8                D_StartGameLoop
                0x00000000a00d9e24                D_RegisterLoopCallbacks
                0x00000000a00d95a8                NetUpdate
                0x00000000a00d9b70                TryRunTics
 .text          0x00000000a00d9e38      0x89c Debug\d_iwad.o
                0x00000000a00da628                D_SuggestGameName
                0x00000000a00da428                D_FindAllIWADs
                0x00000000a00da508                D_SaveGameIWADName
                0x00000000a00da2e8                D_TryFindWADByName
                0x00000000a00da1b0                D_FindWADByName
                0x00000000a00da588                D_SuggestIWADName
                0x00000000a00da328                D_FindIWAD
 .text          0x00000000a00da6d4        0x0 Debug\d_items.o
 .text          0x00000000a00da6d4       0xe8 Debug\d_event.o
                0x00000000a00da73c                D_PopEvent
                0x00000000a00da6d4                D_PostEvent
 .text          0x00000000a00da7bc     0x2a64 Debug\am_map.o
                0x00000000a00dbc18                AM_clearFB
                0x00000000a00db3c4                AM_maxOutWindowScale
                0x00000000a00db388                AM_minOutWindowScale
                0x00000000a00db17c                AM_unloadPics
                0x00000000a00dbc4c                AM_clipMline
                0x00000000a00dcbe0                AM_drawLineCharacter
                0x00000000a00da9a8                AM_restoreScaleAndLoc
                0x00000000a00dc580                AM_drawGrid
                0x00000000a00db2bc                AM_Stop
                0x00000000a00da7bc                AM_getIslope
                0x00000000a00dd150                AM_drawCrosshair
                0x00000000a00dab54                AM_findMinMaxBoundaries
                0x00000000a00daf14                AM_initVariables
                0x00000000a00dad8c                AM_changeWindowLoc
                0x00000000a00da97c                AM_saveScaleAndLoc
                0x00000000a00dc738                AM_drawWalls
                0x00000000a00db960                AM_changeWindowScale
                0x00000000a00dc2a4                AM_drawFline
                0x00000000a00dd004                AM_drawMarks
                0x00000000a00db9dc                AM_doFollowPlayer
                0x00000000a00dcd48                AM_drawPlayers
                0x00000000a00dd194                AM_Drawer
                0x00000000a00da894                AM_activateNewScale
                0x00000000a00daa8c                AM_addMark
                0x00000000a00db400                AM_Responder
                0x00000000a00dbaf4                AM_updateLightLev
                0x00000000a00dc53c                AM_drawMline
                0x00000000a00dcaf0                AM_rotate
                0x00000000a00dbba0                AM_Ticker
                0x00000000a00db100                AM_loadPics
                0x00000000a00db1d8                AM_clearMarks
                0x00000000a00dcf2c                AM_drawThings
                0x00000000a00db22c                AM_LevelInit
                0x00000000a00db2fc                AM_Start
 .text          0x00000000a00dd220      0x658 Debug\libgloss.o
                0x00000000a00dd7e8                _getpid
                0x00000000a00dd768                _lseek_r
                0x00000000a00dd840                _kill_r
                0x00000000a00dd780                _fstat_r
                0x00000000a00dd378                fatfs_fread
                0x00000000a00dd7a0                isatty
                0x00000000a00dd7f8                _getpid_r
                0x00000000a00dd6d8                _sbrk_r
                0x00000000a00dd538                _read_r
                0x00000000a00dd4b8                _putc_r
                0x00000000a00dd68c                _open_r
                0x00000000a00dd6a4                _close_r
                0x00000000a00dd3dc                fatfs_fwrite
                0x00000000a00dd220                fatfs_fopen
                0x00000000a00dd608                _write_r
                0x00000000a00dd440                fatfs_fseek
                0x00000000a00dd808                _kill
                0x00000000a00dd6b8                _exit
                0x00000000a00dd48c                fatfs_fclose
 .text          0x00000000a00dd878       0xd8 Debug\UART.o
                0x00000000a00dd878                UART_Init
                0x00000000a00dd884                UART_SendChar
                0x00000000a00dd8d4                UART_GetChar
 .text          0x00000000a00dd950      0x46c Debug\TV.o
                0x00000000a00ddd5c                TV_FadeIn
                0x00000000a00dd9a4                TV_Init
                0x00000000a00dda6c                TV_Buffer_Sel
                0x00000000a00dd950                TV_ClearScreen
                0x00000000a00ddac8                TV_Fade
                0x00000000a00ddd04                TV_FadeOut
                0x00000000a00ddc2c                TV_PrintHex
                0x00000000a00dda38                TV_Buffer_Set
                0x00000000a00ddae8                TV_Print
                0x00000000a00ddaa8                TV_Hue
                0x00000000a00dda88                TV_Saturation
 .text          0x00000000a00dddbc      0x3d0 Debug\NorFlash.o
                0x00000000a00dddf4                NorFlash_ChipErase
                0x00000000a00ddf30                NorFlash_SectorErase
                0x00000000a00dddbc                NorFlash_Init
                0x00000000a00de104                NorFlash_SetAddress
                0x00000000a00de090                NorFlash_WordWrite
                0x00000000a00dde78                NorFlash_BlockErase
                0x00000000a00ddfe8                NorFlash_Write32
                0x00000000a00de158                NorFlash_Delay
 .text          0x00000000a00de18c        0xc Debug\User_IRQ.o
                0x00000000a00de18c                AP_Init_SysIRQs
 .text          0x00000000a00de198       0xb0 Debug\sys_isr.o
                0x00000000a00de1f4                AP_Attach_ISR
                0x00000000a00de198                irq_dispatch
 .text          0x00000000a00de248      0x164 Debug\I2C.o
                0x00000000a00de324                I2C_Write8
                0x00000000a00de248                I2C_Init
                0x00000000a00de298                I2C_Read8
 .text          0x00000000a00de3ac     0x4644 Debug\ff.o
                0x00000000a00e274c                f_rename
                0x00000000a00e2250                f_truncate
                0x00000000a00e1ebc                f_closedir
                0x00000000a00e23d4                f_unlink
                0x00000000a00e19f0                f_close
                0x00000000a00e1140                f_read
                0x00000000a00e1f00                f_readdir
                0x00000000a00e18d0                f_sync
                0x00000000a00e0c08                f_mount
                0x00000000a00e1da4                f_opendir
                0x00000000a00e1a4c                f_lseek
                0x00000000a00e1fa4                f_stat
                0x00000000a00e1488                f_write
                0x00000000a00e0d00                f_open
                0x00000000a00e2554                f_mkdir
                0x00000000a00e2038                f_getfree
 .text          0x00000000a00e29f0      0x220 Debug\diskio.o
                0x00000000a00e2a5c                USB_disk_initialize
                0x00000000a00e2ad8                DiskB_ReadSector
                0x00000000a00e2b74                disk_initialize
                0x00000000a00e2b60                disk_status
                0x00000000a00e2bf8                disk_ioctl
                0x00000000a00e29f0                DiskB_Initial
                0x00000000a00e2b1c                DiskB_WriteSector
                0x00000000a00e2bc8                disk_write
                0x00000000a00e2b98                disk_read
 .text          0x00000000a00e2c10      0x138 Debug\HS_Controller.o
                0x00000000a00e2c64                HS_Controller_Read
                0x00000000a00e2c10                HS_Controller_Init
 .text          0x00000000a00e2d48       0x14 c:/sunplus/s_core~1.1/gnu/bin/../lib/gcc/score-elf/4.2.1/../../../../score-elf/lib/mel\libc.a(abort.o)
                0x00000000a00e2d48                abort
 .text          0x00000000a00e2d5c       0x14 c:/sunplus/s_core~1.1/gnu/bin/../lib/gcc/score-elf/4.2.1/../../../../score-elf/lib/mel\libc.a(atof.o)
                0x00000000a00e2d5c                atof
 .text          0x00000000a00e2d70       0x30 c:/sunplus/s_core~1.1/gnu/bin/../lib/gcc/score-elf/4.2.1/../../../../score-elf/lib/mel\libc.a(atoi.o)
                0x00000000a00e2d70                _atoi_r
                0x00000000a00e2d88                atoi
 .text          0x00000000a00e2da0       0x28 c:/sunplus/s_core~1.1/gnu/bin/../lib/gcc/score-elf/4.2.1/../../../../score-elf/lib/mel\libc.a(calloc.o)
                0x00000000a00e2da0                calloc
 .text          0x00000000a00e2dc8       0xb4 c:/sunplus/s_core~1.1/gnu/bin/../lib/gcc/score-elf/4.2.1/../../../../score-elf/lib/mel\libc.a(callocr.o)
                0x00000000a00e2dc8                _calloc_r
 .text          0x00000000a00e2e7c        0x0 c:/sunplus/s_core~1.1/gnu/bin/../lib/gcc/score-elf/4.2.1/../../../../score-elf/lib/mel\libc.a(ctype_.o)
 .text          0x00000000a00e2e7c        0xc c:/sunplus/s_core~1.1/gnu/bin/../lib/gcc/score-elf/4.2.1/../../../../score-elf/lib/mel\libc.a(errno.o)
                0x00000000a00e2e7c                __errno
 .text          0x00000000a00e2e88       0xd4 c:/sunplus/s_core~1.1/gnu/bin/../lib/gcc/score-elf/4.2.1/../../../../score-elf/lib/mel\libc.a(exit.o)
                0x00000000a00e2e88                exit
 .text          0x00000000a00e2f5c      0x13c c:/sunplus/s_core~1.1/gnu/bin/../lib/gcc/score-elf/4.2.1/../../../../score-elf/lib/mel\libc.a(fclose.o)
                0x00000000a00e2f5c                fclose
 .text          0x00000000a00e3098       0xf8 c:/sunplus/s_core~1.1/gnu/bin/../lib/gcc/score-elf/4.2.1/../../../../score-elf/lib/mel\libc.a(fflush.o)
                0x00000000a00e3098                fflush
 .text          0x00000000a00e3190      0x24c c:/sunplus/s_core~1.1/gnu/bin/../lib/gcc/score-elf/4.2.1/../../../../score-elf/lib/mel\libc.a(findfp.o)
                0x00000000a00e31ec                __sinit
                0x00000000a00e3288                __sfmoreglue
                0x00000000a00e3278                _cleanup
                0x00000000a00e325c                _cleanup_r
                0x00000000a00e32ec                __sfp
 .text          0x00000000a00e33dc       0xec c:/sunplus/s_core~1.1/gnu/bin/../lib/gcc/score-elf/4.2.1/../../../../score-elf/lib/mel\libc.a(fopen.o)
                0x00000000a00e34a0                fopen
                0x00000000a00e33dc                _fopen_r
 .text          0x00000000a00e34c8       0x1c c:/sunplus/s_core~1.1/gnu/bin/../lib/gcc/score-elf/4.2.1/../../../../score-elf/lib/mel\libc.a(fprintf.o)
                0x00000000a00e34c8                fprintf
 .text          0x00000000a00e34e4       0x58 c:/sunplus/s_core~1.1/gnu/bin/../lib/gcc/score-elf/4.2.1/../../../../score-elf/lib/mel\libc.a(fputc.o)
                0x00000000a00e34e4                fputc
 .text          0x00000000a00e353c       0xdc c:/sunplus/s_core~1.1/gnu/bin/../lib/gcc/score-elf/4.2.1/../../../../score-elf/lib/mel\libc.a(fread.o)
                0x00000000a00e353c                fread
 .text          0x00000000a00e3618      0x42c c:/sunplus/s_core~1.1/gnu/bin/../lib/gcc/score-elf/4.2.1/../../../../score-elf/lib/mel\libc.a(freer.o)
                0x00000000a00e3734                _free_r
                0x00000000a00e3618                _malloc_trim_r
 .text          0x00000000a00e3a44      0x4b8 c:/sunplus/s_core~1.1/gnu/bin/../lib/gcc/score-elf/4.2.1/../../../../score-elf/lib/mel\libc.a(fseek.o)
                0x00000000a00e3ed4                fseek
                0x00000000a00e3a44                _fseek_r
 .text          0x00000000a00e3efc      0x108 c:/sunplus/s_core~1.1/gnu/bin/../lib/gcc/score-elf/4.2.1/../../../../score-elf/lib/mel\libc.a(ftell.o)
                0x00000000a00e3fe4                ftell
                0x00000000a00e3efc                _ftell_r
 .text          0x00000000a00e4004      0x110 c:/sunplus/s_core~1.1/gnu/bin/../lib/gcc/score-elf/4.2.1/../../../../score-elf/lib/mel\libc.a(fwalk.o)
                0x00000000a00e4004                _fwalk
 .text          0x00000000a00e4114       0x6c c:/sunplus/s_core~1.1/gnu/bin/../lib/gcc/score-elf/4.2.1/../../../../score-elf/lib/mel\libc.a(fwrite.o)
                0x00000000a00e4114                fwrite
 .text          0x00000000a00e4180        0x0 c:/sunplus/s_core~1.1/gnu/bin/../lib/gcc/score-elf/4.2.1/../../../../score-elf/lib/mel\libc.a(impure.o)
 .text          0x00000000a00e4180      0x17c c:/sunplus/s_core~1.1/gnu/bin/../lib/gcc/score-elf/4.2.1/../../../../score-elf/lib/mel\libc.a(makebuf.o)
                0x00000000a00e4180                __smakebuf
 .text          0x00000000a00e42fc       0x40 c:/sunplus/s_core~1.1/gnu/bin/../lib/gcc/score-elf/4.2.1/../../../../score-elf/lib/mel\libc.a(malloc.o)
                0x00000000a00e431c                malloc
                0x00000000a00e42fc                free
 .text          0x00000000a00e433c      0x8ac c:/sunplus/s_core~1.1/gnu/bin/../lib/gcc/score-elf/4.2.1/../../../../score-elf/lib/mel\libc.a(mallocr.o)
                0x00000000a00e433c                _malloc_r
 .text          0x00000000a00e4be8       0x90 c:/sunplus/s_core~1.1/gnu/bin/../lib/gcc/score-elf/4.2.1/../../../../score-elf/lib/mel\libc.a(memcmp.o)
                0x00000000a00e4be8                memcmp
 .text          0x00000000a00e4c78       0xb0 c:/sunplus/s_core~1.1/gnu/bin/../lib/gcc/score-elf/4.2.1/../../../../score-elf/lib/mel\libc.a(memcpy.o)
                0x00000000a00e4c78                memcpy
 .text          0x00000000a00e4d28       0xe8 c:/sunplus/s_core~1.1/gnu/bin/../lib/gcc/score-elf/4.2.1/../../../../score-elf/lib/mel\libc.a(memmove.o)
                0x00000000a00e4d28                memmove
 .text          0x00000000a00e4e10       0xb4 c:/sunplus/s_core~1.1/gnu/bin/../lib/gcc/score-elf/4.2.1/../../../../score-elf/lib/mel\libc.a(memset.o)
                0x00000000a00e4e10                memset
 .text          0x00000000a00e4ec4        0x8 c:/sunplus/s_core~1.1/gnu/bin/../lib/gcc/score-elf/4.2.1/../../../../score-elf/lib/mel\libc.a(mlock.o)
                0x00000000a00e4ec8                __malloc_unlock
                0x00000000a00e4ec4                __malloc_lock
 .text          0x00000000a00e4ecc       0x4c c:/sunplus/s_core~1.1/gnu/bin/../lib/gcc/score-elf/4.2.1/../../../../score-elf/lib/mel\libc.a(printf.o)
                0x00000000a00e4ecc                printf
                0x00000000a00e4ef8                _printf_r
 .text          0x00000000a00e4f18       0x88 c:/sunplus/s_core~1.1/gnu/bin/../lib/gcc/score-elf/4.2.1/../../../../score-elf/lib/mel\libc.a(putchar.o)
                0x00000000a00e4f80                putchar
                0x00000000a00e4f18                _putchar_r
 .text          0x00000000a00e4fa0       0x94 c:/sunplus/s_core~1.1/gnu/bin/../lib/gcc/score-elf/4.2.1/../../../../score-elf/lib/mel\libc.a(puts.o)
                0x00000000a00e4fa0                _puts_r
                0x00000000a00e5014                puts
 .text          0x00000000a00e5034       0x28 c:/sunplus/s_core~1.1/gnu/bin/../lib/gcc/score-elf/4.2.1/../../../../score-elf/lib/mel\libc.a(realloc.o)
                0x00000000a00e5034                realloc
 .text          0x00000000a00e505c      0x5d4 c:/sunplus/s_core~1.1/gnu/bin/../lib/gcc/score-elf/4.2.1/../../../../score-elf/lib/mel\libc.a(reallocr.o)
                0x00000000a00e505c                _realloc_r
 .text          0x00000000a00e5630      0x1f0 c:/sunplus/s_core~1.1/gnu/bin/../lib/gcc/score-elf/4.2.1/../../../../score-elf/lib/mel\libc.a(refill.o)
                0x00000000a00e5648                __srefill
 .text          0x00000000a00e5820       0x44 c:/sunplus/s_core~1.1/gnu/bin/../lib/gcc/score-elf/4.2.1/../../../../score-elf/lib/mel\libc.a(remove.o)
                0x00000000a00e5844                remove
                0x00000000a00e5820                _remove_r
 .text          0x00000000a00e5864       0x74 c:/sunplus/s_core~1.1/gnu/bin/../lib/gcc/score-elf/4.2.1/../../../../score-elf/lib/mel\libc.a(rename.o)
                0x00000000a00e58b0                rename
                0x00000000a00e5864                _rename_r
 .text          0x00000000a00e58d8      0x2a8 c:/sunplus/s_core~1.1/gnu/bin/../lib/gcc/score-elf/4.2.1/../../../../score-elf/lib/mel\libc.a(signal.o)
                0x00000000a00e5ae0                _signal_r
                0x00000000a00e5a04                _raise_r
                0x00000000a00e5954                __sigtramp_r
                0x00000000a00e5b58                signal
                0x00000000a00e5944                _init_signal
                0x00000000a00e58d8                _init_signal_r
                0x00000000a00e59e4                __sigtramp
                0x00000000a00e5ac0                raise
 .text          0x00000000a00e5b80       0xf8 c:/sunplus/s_core~1.1/gnu/bin/../lib/gcc/score-elf/4.2.1/../../../../score-elf/lib/mel\libc.a(snprintf.o)
                0x00000000a00e5b80                snprintf
                0x00000000a00e5c04                _snprintf_r
 .text          0x00000000a00e5c78       0xd4 c:/sunplus/s_core~1.1/gnu/bin/../lib/gcc/score-elf/4.2.1/../../../../score-elf/lib/mel\libc.a(sscanf.o)
                0x00000000a00e5ce4                sscanf
                0x00000000a00e5c7c                _sscanf_r
 .text          0x00000000a00e5d4c      0x170 c:/sunplus/s_core~1.1/gnu/bin/../lib/gcc/score-elf/4.2.1/../../../../score-elf/lib/mel\libc.a(stdio.o)
                0x00000000a00e5d74                __sseek
                0x00000000a00e5e54                __sread
                0x00000000a00e5d4c                __sclose
                0x00000000a00e5de0                __swrite
 .text          0x00000000a00e5ebc       0xc0 c:/sunplus/s_core~1.1/gnu/bin/../lib/gcc/score-elf/4.2.1/../../../../score-elf/lib/mel\libc.a(strcasecmp.o)
                0x00000000a00e5ebc                strcasecmp
 .text          0x00000000a00e5f7c       0xfc c:/sunplus/s_core~1.1/gnu/bin/../lib/gcc/score-elf/4.2.1/../../../../score-elf/lib/mel\libc.a(strchr.o)
                0x00000000a00e5f7c                strchr
 .text          0x00000000a00e6078       0xc4 c:/sunplus/s_core~1.1/gnu/bin/../lib/gcc/score-elf/4.2.1/../../../../score-elf/lib/mel\libc.a(strcmp.o)
                0x00000000a00e6078                strcmp
 .text          0x00000000a00e613c       0x20 c:/sunplus/s_core~1.1/gnu/bin/../lib/gcc/score-elf/4.2.1/../../../../score-elf/lib/mel\libc.a(strdup.o)
                0x00000000a00e613c                strdup
 .text          0x00000000a00e615c       0x48 c:/sunplus/s_core~1.1/gnu/bin/../lib/gcc/score-elf/4.2.1/../../../../score-elf/lib/mel\libc.a(strdup_r.o)
                0x00000000a00e615c                _strdup_r
 .text          0x00000000a00e61a4       0x60 c:/sunplus/s_core~1.1/gnu/bin/../lib/gcc/score-elf/4.2.1/../../../../score-elf/lib/mel\libc.a(strlen.o)
                0x00000000a00e61a4                strlen
 .text          0x00000000a00e6204       0xe4 c:/sunplus/s_core~1.1/gnu/bin/../lib/gcc/score-elf/4.2.1/../../../../score-elf/lib/mel\libc.a(strncasecmp.o)
                0x00000000a00e6204                strncasecmp
 .text          0x00000000a00e62e8      0x120 c:/sunplus/s_core~1.1/gnu/bin/../lib/gcc/score-elf/4.2.1/../../../../score-elf/lib/mel\libc.a(strncmp.o)
                0x00000000a00e62e8                strncmp
 .text          0x00000000a00e6408      0x10c c:/sunplus/s_core~1.1/gnu/bin/../lib/gcc/score-elf/4.2.1/../../../../score-elf/lib/mel\libc.a(strncpy.o)
                0x00000000a00e6408                strncpy
 .text          0x00000000a00e6514       0x54 c:/sunplus/s_core~1.1/gnu/bin/../lib/gcc/score-elf/4.2.1/../../../../score-elf/lib/mel\libc.a(strrchr.o)
                0x00000000a00e6514                strrchr
 .text          0x00000000a00e6568       0x84 c:/sunplus/s_core~1.1/gnu/bin/../lib/gcc/score-elf/4.2.1/../../../../score-elf/lib/mel\libc.a(strstr.o)
                0x00000000a00e6568                strstr
 .text          0x00000000a00e65ec      0xffc c:/sunplus/s_core~1.1/gnu/bin/../lib/gcc/score-elf/4.2.1/../../../../score-elf/lib/mel\libc.a(strtod.o)
                0x00000000a00e65f8                _strtod_r
                0x00000000a00e65ec                getversion
                0x00000000a00e75c0                strtod
                0x00000000a00e7598                strtof
 .text          0x00000000a00e75e8      0x208 c:/sunplus/s_core~1.1/gnu/bin/../lib/gcc/score-elf/4.2.1/../../../../score-elf/lib/mel\libc.a(strtol.o)
                0x00000000a00e77c8                strtol
                0x00000000a00e75e8                _strtol_r
 .text          0x00000000a00e77f0       0x28 c:/sunplus/s_core~1.1/gnu/bin/../lib/gcc/score-elf/4.2.1/../../../../score-elf/lib/mel\libc.a(sysread.o)
                0x00000000a00e77f0                read
 .text          0x00000000a00e7818       0x50 c:/sunplus/s_core~1.1/gnu/bin/../lib/gcc/score-elf/4.2.1/../../../../score-elf/lib/mel\libc.a(system.o)
                0x00000000a00e7848                system
                0x00000000a00e7818                _system_r
 .text          0x00000000a00e7868       0x28 c:/sunplus/s_core~1.1/gnu/bin/../lib/gcc/score-elf/4.2.1/../../../../score-elf/lib/mel\libc.a(syswrite.o)
                0x00000000a00e7868                write
 .text          0x00000000a00e7890     0x1bb0 c:/sunplus/s_core~1.1/gnu/bin/../lib/gcc/score-elf/4.2.1/../../../../score-elf/lib/mel\libc.a(vfprintf.o)
                0x00000000a00e7930                _vfprintf_r
                0x00000000a00e78d4                vfprintf
 .text          0x00000000a00e9440     0x1020 c:/sunplus/s_core~1.1/gnu/bin/../lib/gcc/score-elf/4.2.1/../../../../score-elf/lib/mel\libc.a(vfscanf.o)
                0x00000000a00ea3d4                __svfscanf
                0x00000000a00ea3d0                _vfscanf_r
                0x00000000a00ea3fc                vfscanf
                0x00000000a00e9440                __sccl
                0x00000000a00e9540                __svfscanf_r
 .text          0x00000000a00ea460       0xe0 c:/sunplus/s_core~1.1/gnu/bin/../lib/gcc/score-elf/4.2.1/../../../../score-elf/lib/mel\libc.a(vsnprintf.o)
                0x00000000a00ea4cc                vsnprintf
                0x00000000a00ea460                _vsnprintf_r
 .text          0x00000000a00ea540      0x124 c:/sunplus/s_core~1.1/gnu/bin/../lib/gcc/score-elf/4.2.1/../../../../score-elf/lib/mel\libc.a(wbuf.o)
                0x00000000a00ea540                __swbuf
 .text          0x00000000a00ea664       0x78 c:/sunplus/s_core~1.1/gnu/bin/../lib/gcc/score-elf/4.2.1/../../../../score-elf/lib/mel\libc.a(wcrtomb.o)
                0x00000000a00ea664                _wcrtomb_r
                0x00000000a00ea6b4                wcrtomb
 .text          0x00000000a00ea6dc      0x174 c:/sunplus/s_core~1.1/gnu/bin/../lib/gcc/score-elf/4.2.1/../../../../score-elf/lib/mel\libc.a(wcsrtombs.o)
                0x00000000a00ea6dc                _wcsrtombs_r
                0x00000000a00ea824                wcsrtombs
 .text          0x00000000a00ea850      0x4d8 c:/sunplus/s_core~1.1/gnu/bin/../lib/gcc/score-elf/4.2.1/../../../../score-elf/lib/mel\libc.a(wctomb_r.o)
                0x00000000a00ea850                _wctomb_r
 .text          0x00000000a00ead28      0x124 c:/sunplus/s_core~1.1/gnu/bin/../lib/gcc/score-elf/4.2.1/../../../../score-elf/lib/mel\libc.a(wsetup.o)
                0x00000000a00ead28                __swsetup
 .text          0x00000000a00eae4c     0x14b0 c:/sunplus/s_core~1.1/gnu/bin/../lib/gcc/score-elf/4.2.1/../../../../score-elf/lib/mel\libc.a(dtoa.o)
                0x00000000a00eb03c                _dtoa_r
 .text          0x00000000a00ec2fc       0x8c c:/sunplus/s_core~1.1/gnu/bin/../lib/gcc/score-elf/4.2.1/../../../../score-elf/lib/mel\libc.a(flags.o)
                0x00000000a00ec2fc                __sflags
 .text          0x00000000a00ec388      0x390 c:/sunplus/s_core~1.1/gnu/bin/../lib/gcc/score-elf/4.2.1/../../../../score-elf/lib/mel\libc.a(fvwrite.o)
                0x00000000a00ec388                __sfvwrite
 .text          0x00000000a00ec718       0x24 c:/sunplus/s_core~1.1/gnu/bin/../lib/gcc/score-elf/4.2.1/../../../../score-elf/lib/mel\libc.a(iswspace.o)
                0x00000000a00ec718                iswspace
 .text          0x00000000a00ec73c       0xdc c:/sunplus/s_core~1.1/gnu/bin/../lib/gcc/score-elf/4.2.1/../../../../score-elf/lib/mel\libc.a(locale.o)
                0x00000000a00ec764                _setlocale_r
                0x00000000a00ec73c                __locale_charset
                0x00000000a00ec748                _localeconv_r
                0x00000000a00ec7f0                setlocale
                0x00000000a00ec754                localeconv
 .text          0x00000000a00ec818       0x94 c:/sunplus/s_core~1.1/gnu/bin/../lib/gcc/score-elf/4.2.1/../../../../score-elf/lib/mel\libc.a(mbrtowc.o)
                0x00000000a00ec880                mbrtowc
                0x00000000a00ec818                _mbrtowc_r
 .text          0x00000000a00ec8ac       0x54 c:/sunplus/s_core~1.1/gnu/bin/../lib/gcc/score-elf/4.2.1/../../../../score-elf/lib/mel\libc.a(mbtowc_r.o)
                0x00000000a00ec8ac                _mbtowc_r
 .text          0x00000000a00ec900      0x100 c:/sunplus/s_core~1.1/gnu/bin/../lib/gcc/score-elf/4.2.1/../../../../score-elf/lib/mel\libc.a(memchr.o)
                0x00000000a00ec900                memchr
 .text          0x00000000a00eca00      0xd5c c:/sunplus/s_core~1.1/gnu/bin/../lib/gcc/score-elf/4.2.1/../../../../score-elf/lib/mel\libc.a(mprec.o)
                0x00000000a00ecda0                _mprec_log10
                0x00000000a00eca20                _hi0bits
                0x00000000a00ece10                _Balloc
                0x00000000a00eceac                _d2b
                0x00000000a00ed25c                _multiply
                0x00000000a00ecd14                _ratio
                0x00000000a00ed650                _s2b
                0x00000000a00ed44c                _i2b
                0x00000000a00eca94                _lo0bits
                0x00000000a00ecb48                __mcmp
                0x00000000a00ed564                _pow5mult
                0x00000000a00ecba0                _ulp
                0x00000000a00ecbfc                _b2d
                0x00000000a00ed474                _multadd
                0x00000000a00ecfe8                __mdiff
                0x00000000a00ed140                _lshift
                0x00000000a00eca00                _Bfree
 .text          0x00000000a00ed75c        0x0 c:/sunplus/s_core~1.1/gnu/bin/../lib/gcc/score-elf/4.2.1/../../../../score-elf/lib/mel\libc.a(s_infconst.o)
 .text          0x00000000a00ed75c       0x3c c:/sunplus/s_core~1.1/gnu/bin/../lib/gcc/score-elf/4.2.1/../../../../score-elf/lib/mel\libc.a(s_isinf.o)
                0x00000000a00ed75c                isinf
 .text          0x00000000a00ed798       0x2c c:/sunplus/s_core~1.1/gnu/bin/../lib/gcc/score-elf/4.2.1/../../../../score-elf/lib/mel\libc.a(s_isnan.o)
                0x00000000a00ed798                isnan
 .text          0x00000000a00ed7c4       0xb0 c:/sunplus/s_core~1.1/gnu/bin/../lib/gcc/score-elf/4.2.1/../../../../score-elf/lib/mel\libc.a(sprintf.o)
                0x00000000a00ed824                _sprintf_r
                0x00000000a00ed7c4                sprintf
 .text          0x00000000a00ed874      0x298 c:/sunplus/s_core~1.1/gnu/bin/../lib/gcc/score-elf/4.2.1/../../../../score-elf/lib/mel\libc.a(strtoll_r.o)
                0x00000000a00ed874                _strtoll_r
 .text          0x00000000a00edb0c      0x27c c:/sunplus/s_core~1.1/gnu/bin/../lib/gcc/score-elf/4.2.1/../../../../score-elf/lib/mel\libc.a(strtoull_r.o)
                0x00000000a00edb0c                _strtoull_r
 .text          0x00000000a00edd88      0x204 c:/sunplus/s_core~1.1/gnu/bin/../lib/gcc/score-elf/4.2.1/../../../../score-elf/lib/mel\libc.a(strtoul.o)
                0x00000000a00edf64                strtoul
                0x00000000a00edd88                _strtoul_r
 .text          0x00000000a00edf8c      0x278 c:/sunplus/s_core~1.1/gnu/bin/../lib/gcc/score-elf/4.2.1/../../../../score-elf/lib/mel\libc.a(ungetc.o)
                0x00000000a00ee07c                ungetc
                0x00000000a00edf8c                __submore
 .text          0x00000000a00ee204      0x1fc c:/sunplus/s_core~1.1/gnu/bin/../lib/gcc/score-elf/4.2.1/mel\libgcc.a(_addsub_sf.o)
                0x00000000a00ee204                __subsf3
                0x00000000a00ee206                __addsf3
 .text          0x00000000a00ee400      0x368 c:/sunplus/s_core~1.1/gnu/bin/../lib/gcc/score-elf/4.2.1/mel\libgcc.a(_addsub_df.o)
                0x00000000a00ee402                __adddf3
                0x00000000a00ee400                __subdf3
 .text          0x00000000a00ee768      0x1b4 c:/sunplus/s_core~1.1/gnu/bin/../lib/gcc/score-elf/4.2.1/mel\libgcc.a(_mulsf3.o)
                0x00000000a00ee768                __mulsf3
 .text          0x00000000a00ee91c      0x324 c:/sunplus/s_core~1.1/gnu/bin/../lib/gcc/score-elf/4.2.1/mel\libgcc.a(_muldf3.o)
                0x00000000a00ee91c                __muldf3
 .text          0x00000000a00eec40      0x228 c:/sunplus/s_core~1.1/gnu/bin/../lib/gcc/score-elf/4.2.1/mel\libgcc.a(_divsf3.o)
                0x00000000a00eec40                __divsf3
 .text          0x00000000a00eee68      0x4c0 c:/sunplus/s_core~1.1/gnu/bin/../lib/gcc/score-elf/4.2.1/mel\libgcc.a(_divdf3.o)
                0x00000000a00eef2c                __divdf3
                0x00000000a00eee68                Div64by32To32
 .text          0x00000000a00ef328       0x6c c:/sunplus/s_core~1.1/gnu/bin/../lib/gcc/score-elf/4.2.1/mel\libgcc.a(_clz32.o)
                0x00000000a00ef328                countLeadingZeros32
 .text          0x00000000a00ef394       0x80 c:/sunplus/s_core~1.1/gnu/bin/../lib/gcc/score-elf/4.2.1/mel\libgcc.a(_clz64.o)
                0x00000000a00ef394                countLeadingZeros64
 .text          0x00000000a00ef414       0x74 c:/sunplus/s_core~1.1/gnu/bin/../lib/gcc/score-elf/4.2.1/mel\libgcc.a(_floatsisf.o)
                0x00000000a00ef414                __floatsisf
 .text          0x00000000a00ef488       0x70 c:/sunplus/s_core~1.1/gnu/bin/../lib/gcc/score-elf/4.2.1/mel\libgcc.a(_floatsidf.o)
                0x00000000a00ef488                __floatsidf
 .text          0x00000000a00ef4f8       0x54 c:/sunplus/s_core~1.1/gnu/bin/../lib/gcc/score-elf/4.2.1/mel\libgcc.a(_floatunsidf.o)
                0x00000000a00ef4f8                __floatunsidf
 .text          0x00000000a00ef54c       0xac c:/sunplus/s_core~1.1/gnu/bin/../lib/gcc/score-elf/4.2.1/mel\libgcc.a(_sf_to_df.o)
                0x00000000a00ef54c                __extendsfdf2
 .text          0x00000000a00ef5f8       0xe4 c:/sunplus/s_core~1.1/gnu/bin/../lib/gcc/score-elf/4.2.1/mel\libgcc.a(_df_to_sf.o)
                0x00000000a00ef5f8                __truncdfsf2
 .text          0x00000000a00ef6dc       0x68 c:/sunplus/s_core~1.1/gnu/bin/../lib/gcc/score-elf/4.2.1/mel\libgcc.a(_fixsfsi.o)
                0x00000000a00ef6dc                __fixsfsi
 .text          0x00000000a00ef744       0x74 c:/sunplus/s_core~1.1/gnu/bin/../lib/gcc/score-elf/4.2.1/mel\libgcc.a(_fixdfsi.o)
                0x00000000a00ef744                __fixdfsi
 .text          0x00000000a00ef7b8       0xa4 c:/sunplus/s_core~1.1/gnu/bin/../lib/gcc/score-elf/4.2.1/mel\libgcc.a(_fpcmp_parts_df.o)
                0x00000000a00ef7c0                __eqdf2
                0x00000000a00ef7b8                __gtdf2
                0x00000000a00ef7c0                __ltdf2
                0x00000000a00ef7c4                __compare_df2
                0x00000000a00ef7c0                __ledf2
                0x00000000a00ef7c0                __nedf2
                0x00000000a00ef7b8                __gedf2
 .text          0x00000000a00ef85c      0x5e0 c:/sunplus/s_core~1.1/gnu/bin/../lib/gcc/score-elf/4.2.1/mel\libgcc.a(_divdi3.o)
                0x00000000a00ef85c                __divdi3
 .text          0x00000000a00efe3c      0x5bc c:/sunplus/s_core~1.1/gnu/bin/../lib/gcc/score-elf/4.2.1/mel\libgcc.a(_udivdi3.o)
                0x00000000a00efe3c                __udivdi3
 .text          0x00000000a00f03f8      0x59c c:/sunplus/s_core~1.1/gnu/bin/../lib/gcc/score-elf/4.2.1/mel\libgcc.a(_umoddi3.o)
                0x00000000a00f03f8                __umoddi3
 .text          0x00000000a00f0994        0x0 c:/sunplus/s_core~1.1/gnu/bin/../lib/gcc/score-elf/4.2.1/mel\libgcc.a(_clz.o)
 *(.gnu.warning)
 *(.glue_7t)
 *(.glue_7)

.fini
 *(.fini)
                0x00000000a00f0994                PROVIDE (__etext, .)
                0x00000000a00f0994                PROVIDE (_etext, .)
                0x00000000a00f0994                PROVIDE (etext, .)

.rodata         0x00000000a00f0998    0x1ba20
 *(.rodata .rodata.* .gnu.linkonce.r.*)
 .rodata        0x00000000a00f0998      0x33c Debug\z_zone.o
 .rodata        0x00000000a00f0cd4      0x150 Debug\wi_stuff.o
 .rodata        0x00000000a00f0e24      0x268 Debug\w_wad.o
 .rodata        0x00000000a00f108c       0x14 Debug\w_main.o
 .rodata        0x00000000a00f10a0        0x4 Debug\w_file_stdc.o
 .rodata        0x00000000a00f10a4        0x8 Debug\w_file.o
 .rodata        0x00000000a00f10ac      0x110 Debug\v_video.o
 .rodata        0x00000000a00f11bc    0x10504 Debug\tables.o
                0x00000000a00f51bc                finesine
                0x00000000a00ff1bc                tantoangle
                0x00000000a00f11bc                finetangent
                0x00000000a01011c0                gammatable
 .rodata        0x00000000a01016c0       0x54 Debug\statdump.o
 .rodata        0x00000000a0101714      0x1f8 Debug\st_stuff.o
 .rodata        0x00000000a010190c       0x64 Debug\st_lib.o
 .rodata        0x00000000a0101970      0x218 Debug\sounds.o
 .rodata        0x00000000a0101b88       0x94 Debug\s_sound.o
 .rodata        0x00000000a0101c1c      0x1e0 Debug\r_things.o
 .rodata        0x00000000a0101dfc       0x20 Debug\r_segs.o
 .rodata        0x00000000a0101e1c       0xb0 Debug\r_plane.o
 .rodata        0x00000000a0101ecc       0xb4 Debug\r_draw.o
 .rodata        0x00000000a0101f80      0x19c Debug\r_data.o
 .rodata        0x00000000a010211c       0x24 Debug\r_bsp.o
 .rodata        0x00000000a0102140      0x25c Debug\p_switch.o
 .rodata        0x00000000a010239c      0x4f8 Debug\p_spec.o
 .rodata        0x00000000a0102894       0x28 Debug\p_sight.o
 .rodata        0x00000000a01028bc       0x60 Debug\p_setup.o
 .rodata        0x00000000a010291c      0x114 Debug\p_saveg.o
 .rodata        0x00000000a0102a30       0x5c Debug\p_plats.o
 .rodata        0x00000000a0102a8c       0x30 Debug\p_mobj.o
 .rodata        0x00000000a0102abc       0x78 Debug\p_map.o
 .rodata        0x00000000a0102b34      0x4b4 Debug\p_inter.o
 .rodata        0x00000000a0102fe8       0x34 Debug\p_floor.o
 .rodata        0x00000000a010301c       0x40 Debug\p_enemy.o
 .rodata        0x00000000a010305c      0x21c Debug\p_doors.o
 .rodata        0x00000000a0103278       0x30 Debug\p_ceilng.o
 .rodata        0x00000000a01032a8       0x28 Debug\mus2mid.o
 .rodata        0x00000000a01032d0       0x2c Debug\memio.o
 .rodata        0x00000000a01032fc      0x100 Debug\m_random.o
 .rodata        0x00000000a01033fc      0x118 Debug\m_misc.o
 .rodata        0x00000000a0103514      0x45c Debug\m_menu.o
 .rodata        0x00000000a0103970      0x6c8 Debug\m_controls.o
 .rodata        0x00000000a0104038      0xf68 Debug\m_config.o
 .rodata        0x00000000a0104fa0      0x450 Debug\info.o
 .rodata        0x00000000a01053f0      0x198 Debug\i_video.o
 .rodata        0x00000000a0105588      0x248 Debug\i_system.o
 .rodata        0x00000000a01057d0       0xb8 Debug\i_sound.o
 .rodata        0x00000000a0105888       0xd8 Debug\i_scale.o
 .rodata        0x00000000a0105960       0xb4 Debug\i_joystick.o
 .rodata        0x00000000a0105a14      0x100 Debug\i_input.o
 .rodata        0x00000000a0105b14      0xd00 Debug\hu_stuff.o
 .rodata        0x00000000a0106814      0x124 Debug\gusconf.o
 .rodata        0x00000000a0106938      0x440 Debug\g_game.o
 .rodata        0x00000000a0106d78     0x1f64 Debug\f_finale.o
 .rodata        0x00000000a0108cdc      0x33c Debug\dstrings.o
 .rodata        0x00000000a0109018       0xd8 Debug\doomgeneric_hyperscan.o
 .rodata        0x00000000a01090f0      0x180 Debug\d_net.o
 .rodata        0x00000000a0109270       0x74 Debug\d_mode.o
 .rodata        0x00000000a01092e4     0x1114 Debug\d_main.o
 .rodata        0x00000000a010a3f8       0x74 Debug\d_loop.o
 .rodata        0x00000000a010a46c      0x2f0 Debug\d_iwad.o
 .rodata        0x00000000a010a75c       0x74 Debug\am_map.o
 .rodata        0x00000000a010a7d0       0x28 Debug\libgloss.o
 .rodata        0x00000000a010a7f8     0x1004 Debug\TV.o
                0x00000000a010a7f8                font
 .rodata        0x00000000a010b7fc       0x9c Debug\ff.o
 .rodata        0x00000000a010b898      0x184 c:/sunplus/s_core~1.1/gnu/bin/../lib/gcc/score-elf/4.2.1/../../../../score-elf/lib/mel\libc.a(ctype_.o)
                0x00000000a010b898                _ctype_
 .rodata.str1.4
                0x00000000a010ba1c        0x2 c:/sunplus/s_core~1.1/gnu/bin/../lib/gcc/score-elf/4.2.1/../../../../score-elf/lib/mel\libc.a(impure.o)
                                          0x4 (size before relaxing)
 *fill*         0x00000000a010ba1e        0x2 00
 .rodata.str1.4
                0x00000000a010ba20        0x2 c:/sunplus/s_core~1.1/gnu/bin/../lib/gcc/score-elf/4.2.1/../../../../score-elf/lib/mel\libc.a(puts.o)
                                          0x4 (size before relaxing)
 *fill*         0x00000000a010ba22        0x2 00
 .rodata        0x00000000a010ba24       0xb8 c:/sunplus/s_core~1.1/gnu/bin/../lib/gcc/score-elf/4.2.1/../../../../score-elf/lib/mel\libc.a(strtod.o)
 .rodata.str1.4
                0x00000000a010badc       0x5b c:/sunplus/s_core~1.1/gnu/bin/../lib/gcc/score-elf/4.2.1/../../../../score-elf/lib/mel\libc.a(vfprintf.o)
                                         0x5c (size before relaxing)
 *fill*         0x00000000a010bb37        0x1 00
 .rodata        0x00000000a010bb38      0x184 c:/sunplus/s_core~1.1/gnu/bin/../lib/gcc/score-elf/4.2.1/../../../../score-elf/lib/mel\libc.a(vfprintf.o)
 .rodata.str1.4
                0x00000000a010bcbc        0x5 c:/sunplus/s_core~1.1/gnu/bin/../lib/gcc/score-elf/4.2.1/../../../../score-elf/lib/mel\libc.a(vfscanf.o)
                                          0x8 (size before relaxing)
 *fill*         0x00000000a010bcc1        0x3 00
 .rodata        0x00000000a010bcc4      0x440 c:/sunplus/s_core~1.1/gnu/bin/../lib/gcc/score-elf/4.2.1/../../../../score-elf/lib/mel\libc.a(vfscanf.o)
 .rodata.str1.4
                0x00000000a010c104       0x1e c:/sunplus/s_core~1.1/gnu/bin/../lib/gcc/score-elf/4.2.1/../../../../score-elf/lib/mel\libc.a(wctomb_r.o)
                                         0x20 (size before relaxing)
 *fill*         0x00000000a010c122        0x2 00
 .rodata.str1.4
                0x00000000a010c124        0x9 c:/sunplus/s_core~1.1/gnu/bin/../lib/gcc/score-elf/4.2.1/../../../../score-elf/lib/mel\libc.a(dtoa.o)
                                         0x14 (size before relaxing)
 *fill*         0x00000000a010c12d        0x3 00
 .rodata        0x00000000a010c130       0x18 c:/sunplus/s_core~1.1/gnu/bin/../lib/gcc/score-elf/4.2.1/../../../../score-elf/lib/mel\libc.a(dtoa.o)
 .rodata.str1.4
                0x00000000a010c148        0xc c:/sunplus/s_core~1.1/gnu/bin/../lib/gcc/score-elf/4.2.1/../../../../score-elf/lib/mel\libc.a(locale.o)
                                         0x18 (size before relaxing)
 .rodata        0x00000000a010c154       0x34 c:/sunplus/s_core~1.1/gnu/bin/../lib/gcc/score-elf/4.2.1/../../../../score-elf/lib/mel\libc.a(locale.o)
 .rodata.str1.4
                0x0000000000000000        0x4 c:/sunplus/s_core~1.1/gnu/bin/../lib/gcc/score-elf/4.2.1/../../../../score-elf/lib/mel\libc.a(mbrtowc.o)
 .rodata        0x00000000a010c188      0x128 c:/sunplus/s_core~1.1/gnu/bin/../lib/gcc/score-elf/4.2.1/../../../../score-elf/lib/mel\libc.a(mprec.o)
                0x00000000a010c278                __mprec_tinytens
                0x00000000a010c188                __mprec_tens
                0x00000000a010c250                __mprec_bigtens
 .rodata        0x00000000a010c2b0        0x8 c:/sunplus/s_core~1.1/gnu/bin/../lib/gcc/score-elf/4.2.1/../../../../score-elf/lib/mel\libc.a(s_infconst.o)
                0x00000000a010c2b0                __infinity
 .rodata        0x00000000a010c2b8      0x100 c:/sunplus/s_core~1.1/gnu/bin/../lib/gcc/score-elf/4.2.1/mel\libgcc.a(_clz.o)
                0x00000000a010c2b8                __clz_tab

.rodata1
 *(.rodata1)

.sdata2
 *(.sdata2 .sdata2.* .gnu.linkonce.s2.*)

.sbss2
 *(.sbss2 .sbss2.* .gnu.linkonce.sb2.*)

.eh_frame_hdr
 *(.eh_frame_hdr)
                0x00000000a010c4b8                . = (ALIGN (0x100) + (. & 0xff))
                0x00000000a010c4b8                . = ALIGN (0x4)
                0x00000000a010c4b8                PROVIDE (__preinit_array_start, .)

.preinit_array
 *(.preinit_array)
                0x00000000a010c4b8                PROVIDE (__preinit_array_end, .)
                0x00000000a010c4b8                PROVIDE (__init_array_start, .)

.init_array
 *(.init_array)
                0x00000000a010c4b8                PROVIDE (__init_array_end, .)
                0x00000000a010c4b8                PROVIDE (__fini_array_start, .)

.fini_array
 *(.fini_array)
                0x00000000a010c4b8                PROVIDE (__fini_array_end, .)

.data           0x00000000a010c4b8    0x10070
                0x00000000a010c4b8                __data_start = .
 *(.data .data.* .gnu.linkonce.d.*)
 .data          0x00000000a010c4b8        0x0 Debug\hyperscan_startup.o
 .data          0x00000000a010c4b8        0x0 Debug\z_zone.o
 .data          0x00000000a010c4b8      0x6b8 Debug\wi_stuff.o
 .data          0x00000000a010cb70        0x0 Debug\w_wad.o
 .data          0x00000000a010cb70        0x0 Debug\w_main.o
 .data          0x00000000a010cb70        0xc Debug\w_file_stdc.o
                0x00000000a010cb70                stdc_wad_file
 .data          0x00000000a010cb7c        0x0 Debug\w_file.o
 .data          0x00000000a010cb7c        0x0 Debug\w_checksum.o
 .data          0x00000000a010cb7c        0x0 Debug\v_video.o
 .data          0x00000000a010cb7c        0x0 Debug\tables.o
 .data          0x00000000a010cb7c        0x0 Debug\statdump.o
 .data          0x00000000a010cb7c      0x340 Debug\st_stuff.o
                0x00000000a010ce88                cheat_mypos
                0x00000000a010cc4c                cheat_noclip
                0x00000000a010cbb0                cheat_god
                0x00000000a010ce20                cheat_choppers
                0x00000000a010ccb4                cheat_powerup
                0x00000000a010cc80                cheat_commercial_noclip
                0x00000000a010cb7c                cheat_mus
                0x00000000a010cbe4                cheat_ammo
                0x00000000a010ce54                cheat_clev
                0x00000000a010cc18                cheat_ammonokey
 .data          0x00000000a010cebc        0x0 Debug\st_lib.o
 .data          0x00000000a010cebc     0x18b0 Debug\sounds.o
                0x00000000a010cebc                S_music
                0x00000000a010d2fc                S_sfx
 .data          0x00000000a010e76c        0x0 Debug\sha1.o
 .data          0x00000000a010e76c        0x0 Debug\s_sound.o
 .data          0x00000000a010e76c        0x0 Debug\r_things.o
 .data          0x00000000a010e76c        0x0 Debug\r_sky.o
 .data          0x00000000a010e76c        0x0 Debug\r_segs.o
 .data          0x00000000a010e76c        0x0 Debug\r_plane.o
 .data          0x00000000a010e76c        0x0 Debug\r_main.o
 .data          0x00000000a010e76c       0xc8 Debug\r_draw.o
                0x00000000a010e76c                fuzzoffset
 .data          0x00000000a010e834        0x0 Debug\r_data.o
 .data          0x00000000a010e834       0xc0 Debug\r_bsp.o
                0x00000000a010e834                checkcoord
 .data          0x00000000a010e8f4        0x0 Debug\p_user.o
 .data          0x00000000a010e8f4        0x0 Debug\p_tick.o
 .data          0x00000000a010e8f4        0x0 Debug\p_telept.o
 .data          0x00000000a010e8f4      0x334 Debug\p_switch.o
                0x00000000a010e8f4                alphSwitchList
 .data          0x00000000a010ec28      0x284 Debug\p_spec.o
                0x00000000a010ec28                animdefs
 .data          0x00000000a010eeac        0x0 Debug\p_sight.o
 .data          0x00000000a010eeac        0x0 Debug\p_setup.o
 .data          0x00000000a010eeac        0x0 Debug\p_saveg.o
 .data          0x00000000a010eeac        0x0 Debug\p_pspr.o
 .data          0x00000000a010eeac        0x0 Debug\p_plats.o
 .data          0x00000000a010eeac        0x0 Debug\p_mobj.o
 .data          0x00000000a010eeac      0x114 Debug\p_maputl.o
 .data          0x00000000a010efc0        0x0 Debug\p_map.o
 .data          0x00000000a010efc0        0x0 Debug\p_lights.o
 .data          0x00000000a010efc0       0x20 Debug\p_inter.o
                0x00000000a010efc0                maxammo
                0x00000000a010efd0                clipammo
 .data          0x00000000a010efe0        0x0 Debug\p_floor.o
 .data          0x00000000a010efe0       0x74 Debug\p_enemy.o
                0x00000000a010f014                xspeed
                0x00000000a010f004                diags
                0x00000000a010efe0                opposite
                0x00000000a010f034                yspeed
 .data          0x00000000a010f054        0x0 Debug\p_doors.o
 .data          0x00000000a010f054        0x0 Debug\p_ceilng.o
 .data          0x00000000a010f054       0x10 Debug\mus2mid.o
 .data          0x00000000a010f064        0x0 Debug\memio.o
 .data          0x00000000a010f064        0x0 Debug\m_random.o
 .data          0x00000000a010f064        0x0 Debug\m_misc.o
 .data          0x00000000a010f064      0x4d0 Debug\m_menu.o
                0x00000000a010f514                quitsounds2
                0x00000000a010f340                ReadMenu2
                0x00000000a010f4f4                quitsounds
                0x00000000a010f0e8                MainMenu
                0x00000000a010f44c                LoadDef
                0x00000000a010f328                ReadDef1
                0x00000000a010f178                EpisodeMenu
                0x00000000a010f1c8                EpiDef
                0x00000000a010f160                MainDef
                0x00000000a010f1e0                NewGameMenu
                0x00000000a010f36c                SoundMenu
                0x00000000a010f314                ReadMenu1
                0x00000000a010f064                gammamsg
                0x00000000a010f2fc                OptionsDef
                0x00000000a010f354                ReadDef2
                0x00000000a010f464                SaveMenu
                0x00000000a010f3bc                SoundDef
                0x00000000a010f4dc                SaveDef
                0x00000000a010f244                NewDef
                0x00000000a010f3d4                LoadMenu
                0x00000000a010f25c                OptionsMenu
 .data          0x00000000a010f534        0x0 Debug\m_fixed.o
 .data          0x00000000a010f534        0x0 Debug\m_controls.o
 .data          0x00000000a010f534     0x1260 Debug\m_config.o
 .data          0x00000000a0110794        0x0 Debug\m_cheat.o
 .data          0x00000000a0110794        0x0 Debug\m_bbox.o
 .data          0x00000000a0110794        0x0 Debug\m_argv.o
 .data          0x00000000a0110794     0x9d2c Debug\info.o
                0x00000000a0117384                mobjinfo
                0x00000000a0110794                sprnames
                0x00000000a01109c0                states
 .data          0x00000000a011a4c0      0xc00 Debug\icon.o
 .data          0x00000000a011b0c0        0x0 Debug\i_video.o
 .data          0x00000000a011b0c0        0x0 Debug\i_timer.o
 .data          0x00000000a011b0c0        0x0 Debug\i_system.o
 .data          0x00000000a011b0c0        0x0 Debug\i_sound.o
 .data          0x00000000a011b0c0      0x12c Debug\i_scale.o
                0x00000000a011b188                mode_squash_1x
                0x00000000a011b19c                mode_squash_2x
                0x00000000a011b1c4                mode_squash_4x
                0x00000000a011b0fc                mode_scale_4x
                0x00000000a011b14c                mode_stretch_3x
                0x00000000a011b138                mode_stretch_2x
                0x00000000a011b1d8                mode_squash_5x
                0x00000000a011b160                mode_stretch_4x
                0x00000000a011b1b0                mode_squash_3x
                0x00000000a011b0c0                mode_scale_1x
                0x00000000a011b124                mode_stretch_1x
                0x00000000a011b0d4                mode_scale_2x
                0x00000000a011b110                mode_scale_5x
                0x00000000a011b0e8                mode_scale_3x
                0x00000000a011b174                mode_stretch_5x
 .data          0x00000000a011b1ec       0x28 Debug\i_joystick.o
 .data          0x00000000a011b214        0x0 Debug\i_input.o
 .data          0x00000000a011b214        0x0 Debug\i_endoom.o
 .data          0x00000000a011b214        0x0 Debug\i_cdmus.o
 .data          0x00000000a011b214      0x26c Debug\hu_stuff.o
                0x00000000a011b300                mapnames_commercial
                0x00000000a011b24c                mapnames
                0x00000000a011b214                chat_macros
                0x00000000a011b23c                player_names
 .data          0x00000000a011b480        0x0 Debug\hu_lib.o
 .data          0x00000000a011b480        0x0 Debug\gusconf.o
 .data          0x00000000a011b480      0x14c Debug\g_game.o
                0x00000000a011b54c                cpars
                0x00000000a011b4ac                pars
                0x00000000a011b480                angleturn
 .data          0x00000000a011b5cc       0x18 Debug\f_wipe.o
 .data          0x00000000a011b5e4      0x248 Debug\f_finale.o
                0x00000000a011b79c                castorder
 .data          0x00000000a011b82c        0x0 Debug\dummy.o
 .data          0x00000000a011b82c       0x40 Debug\dstrings.o
                0x00000000a011b84c                doom2_endmsg
                0x00000000a011b82c                doom1_endmsg
 .data          0x00000000a011b86c        0x0 Debug\doomstat.o
 .data          0x00000000a011b86c        0x0 Debug\doomgeneric_hyperscan.o
 .data          0x00000000a011b86c        0x0 Debug\doomgeneric.o
 .data          0x00000000a011b86c        0x0 Debug\doomdef.o
 .data          0x00000000a011b86c       0x10 Debug\d_net.o
 .data          0x00000000a011b87c      0x120 Debug\d_mode.o
 .data          0x00000000a011b99c       0xa0 Debug\d_main.o
 .data          0x00000000a011ba3c        0x0 Debug\d_loop.o
 .data          0x00000000a011ba3c        0x0 Debug\d_iwad.o
 .data          0x00000000a011ba3c       0xd8 Debug\d_items.o
                0x00000000a011ba3c                weaponinfo
 .data          0x00000000a011bb14        0x0 Debug\d_event.o
 .data          0x00000000a011bb14      0x25c Debug\am_map.o
                0x00000000a011bcb4                thintriangle_guy
                0x00000000a011bb84                cheat_player_arrow
                0x00000000a011bc84                triangle_guy
                0x00000000a011bb14                player_arrow
                0x00000000a011bce4                cheat_amap
 .data          0x00000000a011bd70        0x0 Debug\libgloss.o
 .data          0x00000000a011bd70        0x0 Debug\UART.o
 .data          0x00000000a011bd70        0x0 Debug\TV.o
 .data          0x00000000a011bd70        0x0 Debug\NorFlash.o
 .data          0x00000000a011bd70        0x0 Debug\User_IRQ.o
 .data          0x00000000a011bd70        0x0 Debug\sys_isr.o
 .data          0x00000000a011bd70        0x0 Debug\I2C.o
 .data          0x00000000a011bd70        0x0 Debug\ff.o
 .data          0x00000000a011bd70        0x0 Debug\diskio.o
 .data          0x00000000a011bd70        0x0 Debug\HS_Controller.o
 .data          0x00000000a011bd70        0x0 c:/sunplus/s_core~1.1/gnu/bin/../lib/gcc/score-elf/4.2.1/../../../../score-elf/lib/mel\libc.a(abort.o)
 .data          0x00000000a011bd70        0x0 c:/sunplus/s_core~1.1/gnu/bin/../lib/gcc/score-elf/4.2.1/../../../../score-elf/lib/mel\libc.a(atof.o)
 .data          0x00000000a011bd70        0x0 c:/sunplus/s_core~1.1/gnu/bin/../lib/gcc/score-elf/4.2.1/../../../../score-elf/lib/mel\libc.a(atoi.o)
 .data          0x00000000a011bd70        0x0 c:/sunplus/s_core~1.1/gnu/bin/../lib/gcc/score-elf/4.2.1/../../../../score-elf/lib/mel\libc.a(calloc.o)
 .data          0x00000000a011bd70        0x0 c:/sunplus/s_core~1.1/gnu/bin/../lib/gcc/score-elf/4.2.1/../../../../score-elf/lib/mel\libc.a(callocr.o)
 .data          0x00000000a011bd70        0x4 c:/sunplus/s_core~1.1/gnu/bin/../lib/gcc/score-elf/4.2.1/../../../../score-elf/lib/mel\libc.a(ctype_.o)
                0x00000000a011bd70                __ctype_ptr
 .data          0x00000000a011bd74        0x0 c:/sunplus/s_core~1.1/gnu/bin/../lib/gcc/score-elf/4.2.1/../../../../score-elf/lib/mel\libc.a(errno.o)
 .data          0x00000000a011bd74        0x0 c:/sunplus/s_core~1.1/gnu/bin/../lib/gcc/score-elf/4.2.1/../../../../score-elf/lib/mel\libc.a(exit.o)
 .data          0x00000000a011bd74        0x0 c:/sunplus/s_core~1.1/gnu/bin/../lib/gcc/score-elf/4.2.1/../../../../score-elf/lib/mel\libc.a(fclose.o)
 .data          0x00000000a011bd74        0x0 c:/sunplus/s_core~1.1/gnu/bin/../lib/gcc/score-elf/4.2.1/../../../../score-elf/lib/mel\libc.a(fflush.o)
 .data          0x00000000a011bd74        0x0 c:/sunplus/s_core~1.1/gnu/bin/../lib/gcc/score-elf/4.2.1/../../../../score-elf/lib/mel\libc.a(findfp.o)
 .data          0x00000000a011bd74        0x0 c:/sunplus/s_core~1.1/gnu/bin/../lib/gcc/score-elf/4.2.1/../../../../score-elf/lib/mel\libc.a(fopen.o)
 .data          0x00000000a011bd74        0x0 c:/sunplus/s_core~1.1/gnu/bin/../lib/gcc/score-elf/4.2.1/../../../../score-elf/lib/mel\libc.a(fprintf.o)
 .data          0x00000000a011bd74        0x0 c:/sunplus/s_core~1.1/gnu/bin/../lib/gcc/score-elf/4.2.1/../../../../score-elf/lib/mel\libc.a(fputc.o)
 .data          0x00000000a011bd74        0x0 c:/sunplus/s_core~1.1/gnu/bin/../lib/gcc/score-elf/4.2.1/../../../../score-elf/lib/mel\libc.a(fread.o)
 .data          0x00000000a011bd74        0x0 c:/sunplus/s_core~1.1/gnu/bin/../lib/gcc/score-elf/4.2.1/../../../../score-elf/lib/mel\libc.a(freer.o)
 .data          0x00000000a011bd74        0x0 c:/sunplus/s_core~1.1/gnu/bin/../lib/gcc/score-elf/4.2.1/../../../../score-elf/lib/mel\libc.a(fseek.o)
 .data          0x00000000a011bd74        0x0 c:/sunplus/s_core~1.1/gnu/bin/../lib/gcc/score-elf/4.2.1/../../../../score-elf/lib/mel\libc.a(ftell.o)
 .data          0x00000000a011bd74        0x0 c:/sunplus/s_core~1.1/gnu/bin/../lib/gcc/score-elf/4.2.1/../../../../score-elf/lib/mel\libc.a(fwalk.o)
 .data          0x00000000a011bd74        0x0 c:/sunplus/s_core~1.1/gnu/bin/../lib/gcc/score-elf/4.2.1/../../../../score-elf/lib/mel\libc.a(fwrite.o)
 *fill*         0x00000000a011bd74        0x4 00
 .data          0x00000000a011bd78      0x388 c:/sunplus/s_core~1.1/gnu/bin/../lib/gcc/score-elf/4.2.1/../../../../score-elf/lib/mel\libc.a(impure.o)
                0x00000000a011bd78                _impure_ptr
 .data          0x00000000a011c100        0x0 c:/sunplus/s_core~1.1/gnu/bin/../lib/gcc/score-elf/4.2.1/../../../../score-elf/lib/mel\libc.a(makebuf.o)
 .data          0x00000000a011c100        0x0 c:/sunplus/s_core~1.1/gnu/bin/../lib/gcc/score-elf/4.2.1/../../../../score-elf/lib/mel\libc.a(malloc.o)
 .data          0x00000000a011c100      0x410 c:/sunplus/s_core~1.1/gnu/bin/../lib/gcc/score-elf/4.2.1/../../../../score-elf/lib/mel\libc.a(mallocr.o)
                0x00000000a011c50c                __malloc_sbrk_base
                0x00000000a011c100                __malloc_av_
                0x00000000a011c508                __malloc_trim_threshold
 .data          0x00000000a011c510        0x0 c:/sunplus/s_core~1.1/gnu/bin/../lib/gcc/score-elf/4.2.1/../../../../score-elf/lib/mel\libc.a(memcmp.o)
 .data          0x00000000a011c510        0x0 c:/sunplus/s_core~1.1/gnu/bin/../lib/gcc/score-elf/4.2.1/../../../../score-elf/lib/mel\libc.a(memcpy.o)
 .data          0x00000000a011c510        0x0 c:/sunplus/s_core~1.1/gnu/bin/../lib/gcc/score-elf/4.2.1/../../../../score-elf/lib/mel\libc.a(memmove.o)
 .data          0x00000000a011c510        0x0 c:/sunplus/s_core~1.1/gnu/bin/../lib/gcc/score-elf/4.2.1/../../../../score-elf/lib/mel\libc.a(memset.o)
 .data          0x00000000a011c510        0x0 c:/sunplus/s_core~1.1/gnu/bin/../lib/gcc/score-elf/4.2.1/../../../../score-elf/lib/mel\libc.a(mlock.o)
 .data          0x00000000a011c510        0x0 c:/sunplus/s_core~1.1/gnu/bin/../lib/gcc/score-elf/4.2.1/../../../../score-elf/lib/mel\libc.a(printf.o)
 .data          0x00000000a011c510        0x0 c:/sunplus/s_core~1.1/gnu/bin/../lib/gcc/score-elf/4.2.1/../../../../score-elf/lib/mel\libc.a(putchar.o)
 .data          0x00000000a011c510        0x0 c:/sunplus/s_core~1.1/gnu/bin/../lib/gcc/score-elf/4.2.1/../../../../score-elf/lib/mel\libc.a(puts.o)
 .data          0x00000000a011c510        0x0 c:/sunplus/s_core~1.1/gnu/bin/../lib/gcc/score-elf/4.2.1/../../../../score-elf/lib/mel\libc.a(realloc.o)
 .data          0x00000000a011c510        0x0 c:/sunplus/s_core~1.1/gnu/bin/../lib/gcc/score-elf/4.2.1/../../../../score-elf/lib/mel\libc.a(reallocr.o)
 .data          0x00000000a011c510        0x0 c:/sunplus/s_core~1.1/gnu/bin/../lib/gcc/score-elf/4.2.1/../../../../score-elf/lib/mel\libc.a(refill.o)
 .data          0x00000000a011c510        0x0 c:/sunplus/s_core~1.1/gnu/bin/../lib/gcc/score-elf/4.2.1/../../../../score-elf/lib/mel\libc.a(remove.o)
 .data          0x00000000a011c510        0x0 c:/sunplus/s_core~1.1/gnu/bin/../lib/gcc/score-elf/4.2.1/../../../../score-elf/lib/mel\libc.a(rename.o)
 .data          0x00000000a011c510        0x0 c:/sunplus/s_core~1.1/gnu/bin/../lib/gcc/score-elf/4.2.1/../../../../score-elf/lib/mel\libc.a(signal.o)
 .data          0x00000000a011c510        0x0 c:/sunplus/s_core~1.1/gnu/bin/../lib/gcc/score-elf/4.2.1/../../../../score-elf/lib/mel\libc.a(snprintf.o)
 .data          0x00000000a011c510        0x0 c:/sunplus/s_core~1.1/gnu/bin/../lib/gcc/score-elf/4.2.1/../../../../score-elf/lib/mel\libc.a(sscanf.o)
 .data          0x00000000a011c510        0x0 c:/sunplus/s_core~1.1/gnu/bin/../lib/gcc/score-elf/4.2.1/../../../../score-elf/lib/mel\libc.a(stdio.o)
 .data          0x00000000a011c510        0x0 c:/sunplus/s_core~1.1/gnu/bin/../lib/gcc/score-elf/4.2.1/../../../../score-elf/lib/mel\libc.a(strcasecmp.o)
 .data          0x00000000a011c510        0x0 c:/sunplus/s_core~1.1/gnu/bin/../lib/gcc/score-elf/4.2.1/../../../../score-elf/lib/mel\libc.a(strchr.o)
 .data          0x00000000a011c510        0x0 c:/sunplus/s_core~1.1/gnu/bin/../lib/gcc/score-elf/4.2.1/../../../../score-elf/lib/mel\libc.a(strcmp.o)
 .data          0x00000000a011c510        0x0 c:/sunplus/s_core~1.1/gnu/bin/../lib/gcc/score-elf/4.2.1/../../../../score-elf/lib/mel\libc.a(strdup.o)
 .data          0x00000000a011c510        0x0 c:/sunplus/s_core~1.1/gnu/bin/../lib/gcc/score-elf/4.2.1/../../../../score-elf/lib/mel\libc.a(strdup_r.o)
 .data          0x00000000a011c510        0x0 c:/sunplus/s_core~1.1/gnu/bin/../lib/gcc/score-elf/4.2.1/../../../../score-elf/lib/mel\libc.a(strlen.o)
 .data          0x00000000a011c510        0x0 c:/sunplus/s_core~1.1/gnu/bin/../lib/gcc/score-elf/4.2.1/../../../../score-elf/lib/mel\libc.a(strncasecmp.o)
 .data          0x00000000a011c510        0x0 c:/sunplus/s_core~1.1/gnu/bin/../lib/gcc/score-elf/4.2.1/../../../../score-elf/lib/mel\libc.a(strncmp.o)
 .data          0x00000000a011c510        0x0 c:/sunplus/s_core~1.1/gnu/bin/../lib/gcc/score-elf/4.2.1/../../../../score-elf/lib/mel\libc.a(strncpy.o)
 .data          0x00000000a011c510        0x0 c:/sunplus/s_core~1.1/gnu/bin/../lib/gcc/score-elf/4.2.1/../../../../score-elf/lib/mel\libc.a(strrchr.o)
 .data          0x00000000a011c510        0x0 c:/sunplus/s_core~1.1/gnu/bin/../lib/gcc/score-elf/4.2.1/../../../../score-elf/lib/mel\libc.a(strstr.o)
 .data          0x00000000a011c510        0x8 c:/sunplus/s_core~1.1/gnu/bin/../lib/gcc/score-elf/4.2.1/../../../../score-elf/lib/mel\libc.a(strtod.o)
 .data          0x00000000a011c518        0x0 c:/sunplus/s_core~1.1/gnu/bin/../lib/gcc/score-elf/4.2.1/../../../../score-elf/lib/mel\libc.a(strtol.o)
 .data          0x00000000a011c518        0x0 c:/sunplus/s_core~1.1/gnu/bin/../lib/gcc/score-elf/4.2.1/../../../../score-elf/lib/mel\libc.a(sysread.o)
 .data          0x00000000a011c518        0x0 c:/sunplus/s_core~1.1/gnu/bin/../lib/gcc/score-elf/4.2.1/../../../../score-elf/lib/mel\libc.a(system.o)
 .data          0x00000000a011c518        0x0 c:/sunplus/s_core~1.1/gnu/bin/../lib/gcc/score-elf/4.2.1/../../../../score-elf/lib/mel\libc.a(syswrite.o)
 .data          0x00000000a011c518        0x0 c:/sunplus/s_core~1.1/gnu/bin/../lib/gcc/score-elf/4.2.1/../../../../score-elf/lib/mel\libc.a(vfprintf.o)
 .data          0x00000000a011c518        0x0 c:/sunplus/s_core~1.1/gnu/bin/../lib/gcc/score-elf/4.2.1/../../../../score-elf/lib/mel\libc.a(vfscanf.o)
 .data          0x00000000a011c518        0x0 c:/sunplus/s_core~1.1/gnu/bin/../lib/gcc/score-elf/4.2.1/../../../../score-elf/lib/mel\libc.a(vsnprintf.o)
 .data          0x00000000a011c518        0x0 c:/sunplus/s_core~1.1/gnu/bin/../lib/gcc/score-elf/4.2.1/../../../../score-elf/lib/mel\libc.a(wbuf.o)
 .data          0x00000000a011c518        0x0 c:/sunplus/s_core~1.1/gnu/bin/../lib/gcc/score-elf/4.2.1/../../../../score-elf/lib/mel\libc.a(wcrtomb.o)
 .data          0x00000000a011c518        0x0 c:/sunplus/s_core~1.1/gnu/bin/../lib/gcc/score-elf/4.2.1/../../../../score-elf/lib/mel\libc.a(wcsrtombs.o)
 .data          0x00000000a011c518        0x0 c:/sunplus/s_core~1.1/gnu/bin/../lib/gcc/score-elf/4.2.1/../../../../score-elf/lib/mel\libc.a(wctomb_r.o)
 .data          0x00000000a011c518        0x0 c:/sunplus/s_core~1.1/gnu/bin/../lib/gcc/score-elf/4.2.1/../../../../score-elf/lib/mel\libc.a(wsetup.o)
 .data          0x00000000a011c518        0x0 c:/sunplus/s_core~1.1/gnu/bin/../lib/gcc/score-elf/4.2.1/../../../../score-elf/lib/mel\libc.a(dtoa.o)
 .data          0x00000000a011c518        0x0 c:/sunplus/s_core~1.1/gnu/bin/../lib/gcc/score-elf/4.2.1/../../../../score-elf/lib/mel\libc.a(flags.o)
 .data          0x00000000a011c518        0x0 c:/sunplus/s_core~1.1/gnu/bin/../lib/gcc/score-elf/4.2.1/../../../../score-elf/lib/mel\libc.a(fvwrite.o)
 .data          0x00000000a011c518        0x0 c:/sunplus/s_core~1.1/gnu/bin/../lib/gcc/score-elf/4.2.1/../../../../score-elf/lib/mel\libc.a(iswspace.o)
 .data          0x00000000a011c518       0x10 c:/sunplus/s_core~1.1/gnu/bin/../lib/gcc/score-elf/4.2.1/../../../../score-elf/lib/mel\libc.a(locale.o)
                0x00000000a011c518                __mb_cur_max
                0x00000000a011c51c                __lc_ctype
 .data          0x00000000a011c528        0x0 c:/sunplus/s_core~1.1/gnu/bin/../lib/gcc/score-elf/4.2.1/../../../../score-elf/lib/mel\libc.a(mbrtowc.o)
 .data          0x00000000a011c528        0x0 c:/sunplus/s_core~1.1/gnu/bin/../lib/gcc/score-elf/4.2.1/../../../../score-elf/lib/mel\libc.a(mbtowc_r.o)
 .data          0x00000000a011c528        0x0 c:/sunplus/s_core~1.1/gnu/bin/../lib/gcc/score-elf/4.2.1/../../../../score-elf/lib/mel\libc.a(memchr.o)
 .data          0x00000000a011c528        0x0 c:/sunplus/s_core~1.1/gnu/bin/../lib/gcc/score-elf/4.2.1/../../../../score-elf/lib/mel\libc.a(mprec.o)
 .data          0x00000000a011c528        0x0 c:/sunplus/s_core~1.1/gnu/bin/../lib/gcc/score-elf/4.2.1/../../../../score-elf/lib/mel\libc.a(s_infconst.o)
 .data          0x00000000a011c528        0x0 c:/sunplus/s_core~1.1/gnu/bin/../lib/gcc/score-elf/4.2.1/../../../../score-elf/lib/mel\libc.a(s_isinf.o)
 .data          0x00000000a011c528        0x0 c:/sunplus/s_core~1.1/gnu/bin/../lib/gcc/score-elf/4.2.1/../../../../score-elf/lib/mel\libc.a(s_isnan.o)
 .data          0x00000000a011c528        0x0 c:/sunplus/s_core~1.1/gnu/bin/../lib/gcc/score-elf/4.2.1/../../../../score-elf/lib/mel\libc.a(sprintf.o)
 .data          0x00000000a011c528        0x0 c:/sunplus/s_core~1.1/gnu/bin/../lib/gcc/score-elf/4.2.1/../../../../score-elf/lib/mel\libc.a(strtoll_r.o)
 .data          0x00000000a011c528        0x0 c:/sunplus/s_core~1.1/gnu/bin/../lib/gcc/score-elf/4.2.1/../../../../score-elf/lib/mel\libc.a(strtoull_r.o)
 .data          0x00000000a011c528        0x0 c:/sunplus/s_core~1.1/gnu/bin/../lib/gcc/score-elf/4.2.1/../../../../score-elf/lib/mel\libc.a(strtoul.o)
 .data          0x00000000a011c528        0x0 c:/sunplus/s_core~1.1/gnu/bin/../lib/gcc/score-elf/4.2.1/../../../../score-elf/lib/mel\libc.a(ungetc.o)
 .data          0x00000000a011c528        0x0 c:/sunplus/s_core~1.1/gnu/bin/../lib/gcc/score-elf/4.2.1/mel\libgcc.a(_addsub_sf.o)
 .data          0x00000000a011c528        0x0 c:/sunplus/s_core~1.1/gnu/bin/../lib/gcc/score-elf/4.2.1/mel\libgcc.a(_addsub_df.o)
 .data          0x00000000a011c528        0x0 c:/sunplus/s_core~1.1/gnu/bin/../lib/gcc/score-elf/4.2.1/mel\libgcc.a(_mulsf3.o)
 .data          0x00000000a011c528        0x0 c:/sunplus/s_core~1.1/gnu/bin/../lib/gcc/score-elf/4.2.1/mel\libgcc.a(_muldf3.o)
 .data          0x00000000a011c528        0x0 c:/sunplus/s_core~1.1/gnu/bin/../lib/gcc/score-elf/4.2.1/mel\libgcc.a(_divsf3.o)
 .data          0x00000000a011c528        0x0 c:/sunplus/s_core~1.1/gnu/bin/../lib/gcc/score-elf/4.2.1/mel\libgcc.a(_divdf3.o)
 .data          0x00000000a011c528        0x0 c:/sunplus/s_core~1.1/gnu/bin/../lib/gcc/score-elf/4.2.1/mel\libgcc.a(_clz32.o)
 .data          0x00000000a011c528        0x0 c:/sunplus/s_core~1.1/gnu/bin/../lib/gcc/score-elf/4.2.1/mel\libgcc.a(_clz64.o)
 .data          0x00000000a011c528        0x0 c:/sunplus/s_core~1.1/gnu/bin/../lib/gcc/score-elf/4.2.1/mel\libgcc.a(_floatsisf.o)
 .data          0x00000000a011c528        0x0 c:/sunplus/s_core~1.1/gnu/bin/../lib/gcc/score-elf/4.2.1/mel\libgcc.a(_floatsidf.o)
 .data          0x00000000a011c528        0x0 c:/sunplus/s_core~1.1/gnu/bin/../lib/gcc/score-elf/4.2.1/mel\libgcc.a(_floatunsidf.o)
 .data          0x00000000a011c528        0x0 c:/sunplus/s_core~1.1/gnu/bin/../lib/gcc/score-elf/4.2.1/mel\libgcc.a(_sf_to_df.o)
 .data          0x00000000a011c528        0x0 c:/sunplus/s_core~1.1/gnu/bin/../lib/gcc/score-elf/4.2.1/mel\libgcc.a(_df_to_sf.o)
 .data          0x00000000a011c528        0x0 c:/sunplus/s_core~1.1/gnu/bin/../lib/gcc/score-elf/4.2.1/mel\libgcc.a(_fixsfsi.o)
 .data          0x00000000a011c528        0x0 c:/sunplus/s_core~1.1/gnu/bin/../lib/gcc/score-elf/4.2.1/mel\libgcc.a(_fixdfsi.o)
 .data          0x00000000a011c528        0x0 c:/sunplus/s_core~1.1/gnu/bin/../lib/gcc/score-elf/4.2.1/mel\libgcc.a(_fpcmp_parts_df.o)
 .data          0x00000000a011c528        0x0 c:/sunplus/s_core~1.1/gnu/bin/../lib/gcc/score-elf/4.2.1/mel\libgcc.a(_divdi3.o)
 .data          0x00000000a011c528        0x0 c:/sunplus/s_core~1.1/gnu/bin/../lib/gcc/score-elf/4.2.1/mel\libgcc.a(_udivdi3.o)
 .data          0x00000000a011c528        0x0 c:/sunplus/s_core~1.1/gnu/bin/../lib/gcc/score-elf/4.2.1/mel\libgcc.a(_umoddi3.o)
 .data          0x00000000a011c528        0x0 c:/sunplus/s_core~1.1/gnu/bin/../lib/gcc/score-elf/4.2.1/mel\libgcc.a(_clz.o)

.data1
 *(.data1)

.tdata
 *(.tdata .tdata.* .gnu.linkonce.td.*)

.tbss
 *(.tbss .tbss.* .gnu.linkonce.tb.*)
 *(.tcommon)

.eh_frame
 *(.eh_frame)

.gcc_except_table
 *(.gcc_except_table)

.dynamic
 *(.dynamic)

.ctors
 *crtbegin.o(.ctors)
 *(EXCLUDE_FILE(*crtend.o) .ctors)
 *(SORT(.ctors.*))
 *(.ctors)

.dtors
 *crtbegin.o(.dtors)
 *(EXCLUDE_FILE(*crtend.o) .dtors)
 *(SORT(.dtors.*))
 *(.dtors)

.jcr
 *(.jcr)

.got
 *(.got.plt)
 *(.got)
                0x00000000a0120528                _gp = (. + 0x4000)

.sdata          0x00000000a011c528      0x2ac
                0x00000000a011c528                _sdata_start = .
 *(.sdata .sdata.* .gnu.linkonce.s.*)
 .sdata         0x00000000a011c528        0x4 Debug\w_file.o
 .sdata         0x00000000a011c52c        0x4 Debug\tables.o
                0x00000000a011c52c                finecosine
 .sdata         0x00000000a011c530       0x14 Debug\st_stuff.o
 .sdata         0x00000000a011c544        0xc Debug\s_sound.o
                0x00000000a011c54c                snd_channels
                0x00000000a011c544                sfxVolume
                0x00000000a011c548                musicVolume
 .sdata         0x00000000a011c550        0x4 Debug\r_main.o
                0x00000000a011c550                validcount
 .sdata         0x00000000a011c554        0x4 Debug\p_spec.o
 .sdata         0x00000000a011c558        0x4 Debug\p_enemy.o
                0x00000000a011c558                TRACEANGLE
 .sdata         0x00000000a011c55c        0x4 Debug\mus2mid.o
 .sdata         0x00000000a011c560       0x24 Debug\m_menu.o
                0x00000000a011c560                mouseSensitivity
                0x00000000a011c568                screenblocks
                0x00000000a011c56c                skullName
                0x00000000a011c564                showMessages
 .sdata         0x00000000a011c584      0x19c Debug\m_controls.o
                0x00000000a011c5fc                key_mission
                0x00000000a011c648                key_spy
                0x00000000a011c71c                dclick_use
                0x00000000a011c688                key_map_toggle
                0x00000000a011c5e0                key_arti_blastradius
                0x00000000a011c5f8                key_invquery
                0x00000000a011c608                key_invhome
                0x00000000a011c6ec                key_menu_gamma
                0x00000000a011c5f4                key_usehealth
                0x00000000a011c5ac                key_flyup
                0x00000000a011c6c8                key_menu_save
                0x00000000a011c65c                key_weapon4
                0x00000000a011c618                mousebstrafe
                0x00000000a011c5dc                key_arti_poisonbag
                0x00000000a011c624                mousebstrafeleft
                0x00000000a011c5c0                key_lookcenter
                0x00000000a011c6ac                key_menu_left
                0x00000000a011c610                key_invuse
                0x00000000a011c708                joybstraferight
                0x00000000a011c650                key_weapon1
                0x00000000a011c6dc                key_menu_endgame
                0x00000000a011c68c                key_map_maxzoom
                0x00000000a011c5e4                key_arti_teleport
                0x00000000a011c5a0                key_use
                0x00000000a011c594                key_strafeleft
                0x00000000a011c630                mousebuse
                0x00000000a011c704                joybstrafeleft
                0x00000000a011c5d8                key_arti_health
                0x00000000a011c694                key_map_grid
                0x00000000a011c6cc                key_menu_load
                0x00000000a011c670                key_map_north
                0x00000000a011c6a8                key_menu_down
                0x00000000a011c5f0                key_arti_invulnerability
                0x00000000a011c668                key_weapon7
                0x00000000a011c5d0                key_jump
                0x00000000a011c64c                key_multi_msg
                0x00000000a011c6d8                key_menu_qsave
                0x00000000a011c6e4                key_menu_qload
                0x00000000a011c620                mousebjump
                0x00000000a011c5cc                key_useartifact
                0x00000000a011c598                key_straferight
                0x00000000a011c6b4                key_menu_back
                0x00000000a011c690                key_map_follow
                0x00000000a011c6f4                key_menu_decscreen
                0x00000000a011c678                key_map_east
                0x00000000a011c5d4                key_arti_all
                0x00000000a011c6a0                key_menu_activate
                0x00000000a011c700                joybspeed
                0x00000000a011c6b0                key_menu_right
                0x00000000a011c6c0                key_menu_abort
                0x00000000a011c658                key_weapon3
                0x00000000a011c5b0                key_flydown
                0x00000000a011c718                joybmenu
                0x00000000a011c5b4                key_flycenter
                0x00000000a011c600                key_invpop
                0x00000000a011c69c                key_map_clearmark
                0x00000000a011c5c8                key_invright
                0x00000000a011c6f8                joybstrafe
                0x00000000a011c59c                key_fire
                0x00000000a011c6d0                key_menu_volume
                0x00000000a011c6a4                key_menu_up
                0x00000000a011c710                joybprevweapon
                0x00000000a011c6fc                joybuse
                0x00000000a011c638                mousebnextweapon
                0x00000000a011c66c                key_weapon8
                0x00000000a011c584                key_right
                0x00000000a011c5e8                key_arti_teleportother
                0x00000000a011c6e8                key_menu_quit
                0x00000000a011c698                key_map_mark
                0x00000000a011c604                key_invkey
                0x00000000a011c614                key_invdrop
                0x00000000a011c644                key_demo_quit
                0x00000000a011c5bc                key_lookdown
                0x00000000a011c6f0                key_menu_incscreen
                0x00000000a011c63c                key_message_refresh
                0x00000000a011c684                key_map_zoomout
                0x00000000a011c5c4                key_invleft
                0x00000000a011c654                key_weapon2
                0x00000000a011c588                key_left
                0x00000000a011c5a4                key_strafe
                0x00000000a011c640                key_pause
                0x00000000a011c6c4                key_menu_help
                0x00000000a011c6b8                key_menu_forward
                0x00000000a011c590                key_down
                0x00000000a011c58c                key_up
                0x00000000a011c714                joybnextweapon
                0x00000000a011c61c                mousebforward
                0x00000000a011c6d4                key_menu_detail
                0x00000000a011c62c                mousebbackward
                0x00000000a011c70c                joybjump
                0x00000000a011c6bc                key_menu_confirm
                0x00000000a011c660                key_weapon5
                0x00000000a011c674                key_map_south
                0x00000000a011c664                key_weapon6
                0x00000000a011c6e0                key_menu_messages
                0x00000000a011c5b8                key_lookup
                0x00000000a011c67c                key_map_west
                0x00000000a011c60c                key_invend
                0x00000000a011c680                key_map_zoomin
                0x00000000a011c628                mousebstraferight
                0x00000000a011c5a8                key_speed
                0x00000000a011c634                mousebprevweapon
                0x00000000a011c5ec                key_arti_egg
 .sdata         0x00000000a011c720        0x8 Debug\icon.o
 .sdata         0x00000000a011c728        0xc Debug\i_video.o
                0x00000000a011c730                mouse_threshold
                0x00000000a011c72c                mouse_acceleration
                0x00000000a011c728                fb_scaling
 .sdata         0x00000000a011c734        0x8 Debug\i_system.o
 .sdata         0x00000000a011c73c       0x18 Debug\i_sound.o
                0x00000000a011c73c                snd_samplerate
                0x00000000a011c74c                snd_musicdevice
                0x00000000a011c750                snd_sfxdevice
                0x00000000a011c744                snd_maxslicetime_ms
                0x00000000a011c748                snd_musiccmd
                0x00000000a011c740                snd_cachesize
 .sdata         0x00000000a011c754        0xc Debug\i_joystick.o
 .sdata         0x00000000a011c760        0x4 Debug\i_input.o
                0x00000000a011c760                vanilla_keyboard_mapping
 .sdata         0x00000000a011c764        0x8 Debug\gusconf.o
                0x00000000a011c768                gus_ram_kb
                0x00000000a011c764                gus_patch_path
 .sdata         0x00000000a011c76c       0x24 Debug\g_game.o
                0x00000000a011c76c                precache
                0x00000000a011c78c                vanilla_demo_limit
                0x00000000a011c770                forwardmove
                0x00000000a011c788                vanilla_savegame_limit
                0x00000000a011c778                sidemove
 .sdata         0x00000000a011c790        0x8 Debug\doomstat.o
                0x00000000a011c790                gamemode
                0x00000000a011c794                gameversion
 .sdata         0x00000000a011c798        0xc Debug\doomgeneric_hyperscan.o
                0x00000000a011c798                fb
 .sdata         0x00000000a011c7a4        0xc Debug\d_main.o
                0x00000000a011c7a4                show_endoom
                0x00000000a011c7a8                wipegamestate
 .sdata         0x00000000a011c7b0        0x4 Debug\d_loop.o
 .sdata         0x00000000a011c7b4       0x20 Debug\am_map.o
                0x00000000a011c7d4                _edata = .
                0x00000000a011c7d4                PROVIDE (edata, .)
                0x00000000a011c7d4                . = ALIGN (0x4)
                0x00000000a011c7d4                __bss_start = .
                0x00000000a011c7d4                __bss_start__ = .

.sbss           0x00000000a011c7d4      0x8f4
                0x00000000a011c7d4                PROVIDE (__sbss_start, .)
                0x00000000a011c7d4                PROVIDE (___sbss_start, .)
 *(.dynsbss)
 *(.sbss .sbss.* .gnu.linkonce.sb.*)
 .sbss          0x00000000a011c7d4       0x9c Debug\wi_stuff.o
 .sbss          0x00000000a011c870        0x4 Debug\w_wad.o
 .sbss          0x00000000a011c874        0x8 Debug\w_checksum.o
 .sbss          0x00000000a011c87c        0x8 Debug\v_video.o
 .sbss          0x00000000a011c884        0x4 Debug\statdump.o
 .sbss          0x00000000a011c888       0x64 Debug\st_stuff.o
 .sbss          0x00000000a011c8ec       0x10 Debug\s_sound.o
 .sbss          0x00000000a011c8fc        0x4 Debug\r_draw.o
 .sbss          0x00000000a011c900        0x8 Debug\p_spec.o
 .sbss          0x00000000a011c908        0x8 Debug\p_setup.o
 .sbss          0x00000000a011c910        0xc Debug\p_saveg.o
 .sbss          0x00000000a011c91c        0x4 Debug\p_map.o
 .sbss          0x00000000a011c920        0x4 Debug\p_enemy.o
 .sbss          0x00000000a011c924        0x8 Debug\mus2mid.o
 .sbss          0x00000000a011c92c       0x1c Debug\m_menu.o
 .sbss          0x00000000a011c948        0x8 Debug\m_config.o
 .sbss          0x00000000a011c950        0x4 Debug\i_timer.o
 .sbss          0x00000000a011c954        0xc Debug\i_system.o
 .sbss          0x00000000a011c960       0x1c Debug\i_sound.o
 .sbss          0x00000000a011c97c       0x18 Debug\i_scale.o
 .sbss          0x00000000a011c994       0x14 Debug\i_joystick.o
 .sbss          0x00000000a011c9a8        0x4 Debug\i_input.o
 .sbss          0x00000000a011c9ac       0x2c Debug\hu_stuff.o
 .sbss          0x00000000a011c9d8       0x34 Debug\g_game.o
 .sbss          0x00000000a011ca0c       0x14 Debug\f_wipe.o
 .sbss          0x00000000a011ca20        0x4 Debug\f_finale.o
 .sbss          0x00000000a011ca24       0x1c Debug\doomgeneric_hyperscan.o
 .sbss          0x00000000a011ca40       0x14 Debug\d_main.o
 .sbss          0x00000000a011ca54       0x24 Debug\d_loop.o
 .sbss          0x00000000a011ca78        0x8 Debug\d_iwad.o
 .sbss          0x00000000a011ca80        0x8 Debug\d_event.o
 .sbss          0x00000000a011ca88       0xa8 Debug\am_map.o
 .sbss          0x00000000a011cb30        0x4 Debug\libgloss.o
 .sbss          0x00000000a011cb34        0x8 Debug\ff.o
 *(.scommon)
 .scommon       0x00000000a011cb3c        0x4 Debug\z_zone.o
                0x00000000a011cb3c                mainzone
 .scommon       0x00000000a011cb40        0x4 Debug\w_wad.o
                0x00000000a011cb40                lumpinfo
 .scommon       0x00000000a011cb44        0x4 Debug\st_stuff.o
                0x00000000a011cb44                st_backing_screen
 .scommon       0x00000000a011cb48        0x4 Debug\st_lib.o
                0x00000000a011cb48                sttminus
 .scommon       0x00000000a011cb4c       0x34 Debug\r_things.o
                0x00000000a011cb4c                pspritescale
                0x00000000a011cb50                sprites
                0x00000000a011cb54                vissprite_p
                0x00000000a011cb58                spryscale
                0x00000000a011cb5c                maxframe
                0x00000000a011cb60                mceilingclip
                0x00000000a011cb64                newvissprite
                0x00000000a011cb68                numsprites
                0x00000000a011cb6c                pspriteiscale
                0x00000000a011cb70                sprtopscreen
                0x00000000a011cb74                mfloorclip
                0x00000000a011cb78                spritename
                0x00000000a011cb7c                spritelights
 .scommon       0x00000000a011cb80        0xc Debug\r_sky.o
                0x00000000a011cb80                skytexture
                0x00000000a011cb84                skyflatnum
                0x00000000a011cb88                skytexturemid
 .scommon       0x00000000a011cb8c       0x84 Debug\r_segs.o
                0x00000000a011cb8c                worldbottom
                0x00000000a011cb90                pixhighstep
                0x00000000a011cb94                rw_x
                0x00000000a011cb98                topfrac
                0x00000000a011cb9c                rw_scale
                0x00000000a011cba0                worldtop
                0x00000000a011cba4                midtexture
                0x00000000a011cba8                rw_offset
                0x00000000a011cbac                pixlow
                0x00000000a011cbb0                rw_bottomtexturemid
                0x00000000a011cbb4                rw_stopx
                0x00000000a011cbb8                bottomtexture
                0x00000000a011cbbc                rw_toptexturemid
                0x00000000a011cbc0                markfloor
                0x00000000a011cbc4                walllights
                0x00000000a011cbc8                segtextured
                0x00000000a011cbcc                pixlowstep
                0x00000000a011cbd0                rw_normalangle
                0x00000000a011cbd4                worldlow
                0x00000000a011cbd8                bottomfrac
                0x00000000a011cbdc                rw_distance
                0x00000000a011cbe0                rw_scalestep
                0x00000000a011cbe4                maskedtexture
                0x00000000a011cbe8                toptexture
                0x00000000a011cbec                worldhigh
                0x00000000a011cbf0                bottomstep
                0x00000000a011cbf4                rw_angle1
                0x00000000a011cbf8                rw_midtexturemid
                0x00000000a011cbfc                maskedtexturecol
                0x00000000a011cc00                markceiling
                0x00000000a011cc04                topstep
                0x00000000a011cc08                rw_centerangle
                0x00000000a011cc0c                pixhigh
 .scommon       0x00000000a011cc10       0x28 Debug\r_plane.o
                0x00000000a011cc10                planezlight
                0x00000000a011cc14                ceilingplane
                0x00000000a011cc18                floorfunc
                0x00000000a011cc1c                lastopening
                0x00000000a011cc20                planeheight
                0x00000000a011cc24                lastvisplane
                0x00000000a011cc28                baseyscale
                0x00000000a011cc2c                basexscale
                0x00000000a011cc30                ceilingfunc
                0x00000000a011cc34                floorplane
 .scommon       0x00000000a011cc38       0x74 Debug\r_main.o
                0x00000000a011cc38                detailshift
                0x00000000a011cc3c                centery
                0x00000000a011cc40                projection
                0x00000000a011cc44                viewcos
                0x00000000a011cc48                fixedcolormap
                0x00000000a011cc4c                transcolfunc
                0x00000000a011cc50                extralight
                0x00000000a011cc54                fuzzcolfunc
                0x00000000a011cc58                viewy
                0x00000000a011cc5c                framecount
                0x00000000a011cc60                setsizeneeded
                0x00000000a011cc64                loopcount
                0x00000000a011cc68                setdetail
                0x00000000a011cc6c                colfunc
                0x00000000a011cc70                linecount
                0x00000000a011cc74                clipangle
                0x00000000a011cc78                viewsin
                0x00000000a011cc7c                sscount
                0x00000000a011cc80                centerx
                0x00000000a011cc84                spanfunc
                0x00000000a011cc88                basecolfunc
                0x00000000a011cc8c                viewplayer
                0x00000000a011cc90                viewz
                0x00000000a011cc94                viewangleoffset
                0x00000000a011cc98                setblocks
                0x00000000a011cc9c                centeryfrac
                0x00000000a011cca0                viewangle
                0x00000000a011cca4                viewx
                0x00000000a011cca8                centerxfrac
 .scommon       0x00000000a011ccac       0x68 Debug\r_draw.o
                0x00000000a011ccac                dc_yl
                0x00000000a011ccb0                ds_source
                0x00000000a011ccb4                ds_x2
                0x00000000a011ccb8                ds_xstep
                0x00000000a011ccbc                ds_colormap
                0x00000000a011ccc0                viewwidth
                0x00000000a011ccc4                ds_ystep
                0x00000000a011ccc8                ds_yfrac
                0x00000000a011cccc                ds_xfrac
                0x00000000a011ccd0                dc_yh
                0x00000000a011ccd4                dc_x
                0x00000000a011ccd8                dc_source
                0x00000000a011ccdc                dc_iscale
                0x00000000a011cce0                viewimage
                0x00000000a011cce4                translationtables
                0x00000000a011cce8                viewheight
                0x00000000a011ccec                dc_texturemid
                0x00000000a011ccf0                ds_x1
                0x00000000a011ccf4                dccount
                0x00000000a011ccf8                scaledviewwidth
                0x00000000a011ccfc                dc_translation
                0x00000000a011cd00                dc_colormap
                0x00000000a011cd04                viewwindowy
                0x00000000a011cd08                ds_y
                0x00000000a011cd0c                dscount
                0x00000000a011cd10                viewwindowx
 .scommon       0x00000000a011cd14       0x6c Debug\r_data.o
                0x00000000a011cd14                numflats
                0x00000000a011cd18                texturecolumnlump
                0x00000000a011cd1c                texturecolumnofs
                0x00000000a011cd20                textureheight
                0x00000000a011cd24                numpatches
                0x00000000a011cd28                firstflat
                0x00000000a011cd2c                flattranslation
                0x00000000a011cd30                textures_hashtable
                0x00000000a011cd34                texturememory
                0x00000000a011cd38                lastspritelump
                0x00000000a011cd3c                texturecompositesize
                0x00000000a011cd40                spritewidth
                0x00000000a011cd44                texturewidthmask
                0x00000000a011cd48                flatmemory
                0x00000000a011cd4c                lastflat
                0x00000000a011cd50                texturetranslation
                0x00000000a011cd54                numtextures
                0x00000000a011cd58                spriteoffset
                0x00000000a011cd5c                firstspritelump
                0x00000000a011cd60                lastpatch
                0x00000000a011cd64                textures
                0x00000000a011cd68                colormaps
                0x00000000a011cd6c                spritememory
                0x00000000a011cd70                spritetopoffset
                0x00000000a011cd74                firstpatch
                0x00000000a011cd78                texturecomposite
                0x00000000a011cd7c                numspritelumps
 .scommon       0x00000000a011cd80       0x1c Debug\r_bsp.o
                0x00000000a011cd80                sidedef
                0x00000000a011cd84                linedef
                0x00000000a011cd88                frontsector
                0x00000000a011cd8c                ds_p
                0x00000000a011cd90                backsector
                0x00000000a011cd94                newend
                0x00000000a011cd98                curline
 .scommon       0x00000000a011cd9c        0x4 Debug\p_user.o
                0x00000000a011cd9c                onground
 .scommon       0x00000000a011cda0        0x4 Debug\p_tick.o
                0x00000000a011cda0                leveltime
 .scommon       0x00000000a011cda4        0x4 Debug\p_switch.o
                0x00000000a011cda4                numswitches
 .scommon       0x00000000a011cda8       0x10 Debug\p_spec.o
                0x00000000a011cda8                numlinespecials
                0x00000000a011cdac                levelTimeCount
                0x00000000a011cdb0                levelTimer
                0x00000000a011cdb4                lastanim
 .scommon       0x00000000a011cdb8       0x1c Debug\p_sight.o
                0x00000000a011cdb8                topslope
                0x00000000a011cdbc                sightcounts
                0x00000000a011cdc4                t2y
                0x00000000a011cdc8                bottomslope
                0x00000000a011cdcc                t2x
                0x00000000a011cdd0                sightzstart
 .scommon       0x00000000a011cdd4       0x5c Debug\p_setup.o
                0x00000000a011cdd4                sectors
                0x00000000a011cdd8                bmapwidth
                0x00000000a011cddc                vertexes
                0x00000000a011cde0                deathmatch_p
                0x00000000a011cde4                bmaporgy
                0x00000000a011cde8                numsides
                0x00000000a011cdec                blockmaplump
                0x00000000a011cdf0                rejectmatrix
                0x00000000a011cdf4                numvertexes
                0x00000000a011cdf8                numsectors
                0x00000000a011cdfc                bmaporgx
                0x00000000a011ce00                subsectors
                0x00000000a011ce04                segs
                0x00000000a011ce08                numsegs
                0x00000000a011ce0c                bmapheight
                0x00000000a011ce10                numlines
                0x00000000a011ce14                nodes
                0x00000000a011ce18                numnodes
                0x00000000a011ce1c                sides
                0x00000000a011ce20                blockmap
                0x00000000a011ce24                blocklinks
                0x00000000a011ce28                numsubsectors
                0x00000000a011ce2c                lines
 .scommon       0x00000000a011ce30       0x10 Debug\p_saveg.o
                0x00000000a011ce30                savegame_error
                0x00000000a011ce34                savegamelength
                0x00000000a011ce38                specials_e
                0x00000000a011ce3c                save_stream
 .scommon       0x00000000a011ce40        0xc Debug\p_pspr.o
                0x00000000a011ce40                swingy
                0x00000000a011ce44                bulletslope
                0x00000000a011ce48                swingx
 .scommon       0x00000000a011ce4c        0xc Debug\p_mobj.o
                0x00000000a011ce4c                iquehead
                0x00000000a011ce50                test
                0x00000000a011ce54                iquetail
 .scommon       0x00000000a011ce58       0x1c Debug\p_maputl.o
                0x00000000a011ce58                openbottom
                0x00000000a011ce5c                openrange
                0x00000000a011ce60                opentop
                0x00000000a011ce64                earlyout
                0x00000000a011ce68                intercept_p
                0x00000000a011ce6c                ptflags
                0x00000000a011ce70                lowfloor
 .scommon       0x00000000a011ce74       0x74 Debug\p_map.o
                0x00000000a011ce74                shootthing
                0x00000000a011ce78                tmflags
                0x00000000a011ce7c                tmceilingz
                0x00000000a011ce80                bombdamage
                0x00000000a011ce84                tmthing
                0x00000000a011ce88                tmx
                0x00000000a011ce8c                nofit
                0x00000000a011ce90                secondslidefrac
                0x00000000a011ce94                ceilingline
                0x00000000a011ce98                bombspot
                0x00000000a011ce9c                tmfloorz
                0x00000000a011cea0                bombsource
                0x00000000a011cea4                attackrange
                0x00000000a011cea8                usething
                0x00000000a011ceac                shootz
                0x00000000a011ceb0                tmy
                0x00000000a011ceb4                linetarget
                0x00000000a011ceb8                tmdropoffz
                0x00000000a011cebc                numspechit
                0x00000000a011cec0                secondslideline
                0x00000000a011cec4                bestslidefrac
                0x00000000a011cec8                floatok
                0x00000000a011cecc                aimslope
                0x00000000a011ced0                tmxmove
                0x00000000a011ced4                la_damage
                0x00000000a011ced8                tmymove
                0x00000000a011cedc                bestslideline
                0x00000000a011cee0                crushchange
                0x00000000a011cee4                slidemo
 .scommon       0x00000000a011cee8       0x18 Debug\p_enemy.o
                0x00000000a011cee8                numbraintargets
                0x00000000a011ceec                soundtarget
                0x00000000a011cef0                viletryx
                0x00000000a011cef4                corpsehit
                0x00000000a011cef8                viletryy
                0x00000000a011cefc                vileobj
 .scommon       0x00000000a011cf00       0x68 Debug\m_menu.o
                0x00000000a011cf00                whichSkull
                0x00000000a011cf02                skullAnimCounter
                0x00000000a011cf04                quickSaveSlot
                0x00000000a011cf08                read_e2
                0x00000000a011cf0c                saveSlot
                0x00000000a011cf10                newgame_e
                0x00000000a011cf14                messageNeedsInput
                0x00000000a011cf18                messy
                0x00000000a011cf1c                episodes_e
                0x00000000a011cf20                messageRoutine
                0x00000000a011cf24                load_e
                0x00000000a011cf28                messageLastMenuActive
                0x00000000a011cf2c                currentMenu
                0x00000000a011cf30                menuactive
                0x00000000a011cf34                main_e
                0x00000000a011cf38                read_e
                0x00000000a011cf3c                sound_e
                0x00000000a011cf40                options_e
                0x00000000a011cf44                messx
                0x00000000a011cf48                screenSize
                0x00000000a011cf4c                saveStringEnter
                0x00000000a011cf50                itemOn
                0x00000000a011cf54                saveCharIndex
                0x00000000a011cf58                messageString
                0x00000000a011cf5c                epi
                0x00000000a011cf60                inhelpscreens
                0x00000000a011cf64                messageToPrint
 .scommon       0x00000000a011cf68        0x4 Debug\m_config.o
                0x00000000a011cf68                configdir
 .scommon       0x00000000a011cf6c        0x8 Debug\m_argv.o
                0x00000000a011cf6c                myargv
                0x00000000a011cf70                myargc
 .scommon       0x00000000a011cf74        0x4 Debug\i_video.o
                0x00000000a011cf74                screenvisible
 .scommon       0x00000000a011cf78        0x4 Debug\i_cdmus.o
                0x00000000a011cf78                cd_Error
 .scommon       0x00000000a011cf7c        0x9 Debug\hu_stuff.o
                0x00000000a011cf7c                chat_on
                0x00000000a011cf80                message_dontfuckwithme
                0x00000000a011cf84                chat_char
 *fill*         0x00000000a011cf85        0x3 00
 .scommon       0x00000000a011cf88       0xac Debug\g_game.o
                0x00000000a011cf88                timingdemo
                0x00000000a011cf8c                paused
                0x00000000a011cf90                totalitems
                0x00000000a011cf94                starttime
                0x00000000a011cf98                demoname
                0x00000000a011cf9c                oldgamestate
                0x00000000a011cfa0                netdemo
                0x00000000a011cfa4                d_skill
                0x00000000a011cfa8                usergame
                0x00000000a011cfac                respawnmonsters
                0x00000000a011cfb0                demobuffer
                0x00000000a011cfb4                defdemoname
                0x00000000a011cfb8                testcontrols_mousespeed
                0x00000000a011cfbc                consoleplayer
                0x00000000a011cfc0                demo_p
                0x00000000a011cfc4                totalsecret
                0x00000000a011cfc8                gamestate
                0x00000000a011cfcc                netgame
                0x00000000a011cfd0                mousey
                0x00000000a011cfd4                singledemo
                0x00000000a011cfd8                lowres_turn
                0x00000000a011cfdc                demoend
                0x00000000a011cfe0                demoplayback
                0x00000000a011cfe4                totalkills
                0x00000000a011cfe8                gameskill
                0x00000000a011cfec                gameepisode
                0x00000000a011cff0                timelimit
                0x00000000a011cff4                levelstarttic
                0x00000000a011cff8                d_map
                0x00000000a011cffc                demorecording
                0x00000000a011d000                d_episode
                0x00000000a011d004                nodrawers
                0x00000000a011d008                deathmatch
                0x00000000a011d00c                displayplayer
                0x00000000a011d010                viewactive
                0x00000000a011d014                longtics
                0x00000000a011d018                sendsave
                0x00000000a011d01c                gamemap
                0x00000000a011d020                gameaction
                0x00000000a011d024                mousex
                0x00000000a011d028                sendpause
                0x00000000a011d02c                secretexit
                0x00000000a011d030                bodyqueslot
 .scommon       0x00000000a011d034       0x2c Debug\f_finale.o
                0x00000000a011d034                castonmelee
                0x00000000a011d038                finalecount
                0x00000000a011d03c                castnum
                0x00000000a011d040                casttics
                0x00000000a011d044                finaleflat
                0x00000000a011d048                castattacking
                0x00000000a011d04c                caststate
                0x00000000a011d050                finalestage
                0x00000000a011d054                finaletext
                0x00000000a011d058                castframes
                0x00000000a011d05c                castdeath
 .scommon       0x00000000a011d060        0x8 Debug\doomstat.o
                0x00000000a011d060                modifiedgame
                0x00000000a011d064                gamedescription
 .scommon       0x00000000a011d068        0x5 Debug\doomgeneric_hyperscan.o
                0x00000000a011d068                controller
 *fill*         0x00000000a011d06d        0x3 00
 .scommon       0x00000000a011d070        0x4 Debug\d_net.o
                0x00000000a011d070                netcmds
 .scommon       0x00000000a011d074       0x44 Debug\d_main.o
                0x00000000a011d074                startmap
                0x00000000a011d078                iwadfile
                0x00000000a011d07c                startloadgame
                0x00000000a011d080                savegamedir
                0x00000000a011d084                pagetic
                0x00000000a011d088                startskill
                0x00000000a011d08c                respawnparm
                0x00000000a011d090                demosequence
                0x00000000a011d094                nomonsters
                0x00000000a011d098                devparm
                0x00000000a011d09c                fastparm
                0x00000000a011d0a0                pagename
                0x00000000a011d0a4                autostart
                0x00000000a011d0a8                advancedemo
                0x00000000a011d0ac                storedemo
                0x00000000a011d0b0                startepisode
                0x00000000a011d0b4                bfgedition
 .scommon       0x00000000a011d0b8       0x10 Debug\d_loop.o
                0x00000000a011d0b8                lasttime
                0x00000000a011d0bc                gametic
                0x00000000a011d0c0                ticdup
                0x00000000a011d0c4                offsetms
 .scommon       0x00000000a011d0c8        0x0 Debug\HS_Controller.o
                0x00000000a011d0c8                PROVIDE (__sbss_end, .)
                0x00000000a011d0c8                PROVIDE (___sbss_end, .)
                0x00000000a0120528                _gp = (_sdata_start + 0x4000)

.bss            0x00000000a011d0c8   0x83b434
 *(.dynbss)
 *(.bss .bss.* .gnu.linkonce.b.*)
 .bss           0x00000000a011d0c8        0x0 Debug\hyperscan_startup.o
 .bss           0x00000000a011d0c8        0x0 Debug\z_zone.o
 .bss           0x00000000a011d0c8       0xe4 Debug\wi_stuff.o
 .bss           0x00000000a011d1ac        0x4 Debug\w_wad.o
                0x00000000a011d1ac                numlumps
 .bss           0x00000000a011d1b0        0x0 Debug\w_main.o
 .bss           0x00000000a011d1b0        0x0 Debug\w_file_stdc.o
 .bss           0x00000000a011d1b0        0x0 Debug\w_file.o
 .bss           0x00000000a011d1b0        0x0 Debug\w_checksum.o
 .bss           0x00000000a011d1b0        0x8 Debug\v_video.o
                0x00000000a011d1b4                xlatab
                0x00000000a011d1b0                tinttable
 .bss           0x00000000a011d1b8        0x0 Debug\tables.o
 .bss           0x00000000a011d1b8     0x1900 Debug\statdump.o
 .bss           0x00000000a011eab8      0x460 Debug\st_stuff.o
 .bss           0x00000000a011ef18        0x0 Debug\st_lib.o
 .bss           0x00000000a011ef18        0x0 Debug\sounds.o
 .bss           0x00000000a011ef18        0x0 Debug\sha1.o
 .bss           0x00000000a011ef18        0x0 Debug\s_sound.o
 .bss           0x00000000a011ef18      0x500 Debug\r_things.o
 .bss           0x00000000a011f418        0x0 Debug\r_sky.o
 .bss           0x00000000a011f418        0x0 Debug\r_segs.o
 .bss           0x00000000a011f418        0x0 Debug\r_plane.o
 .bss           0x00000000a011f418        0x0 Debug\r_main.o
 .bss           0x00000000a011f418        0x4 Debug\r_draw.o
                0x00000000a011f418                fuzzpos
 .bss           0x00000000a011f41c        0x0 Debug\r_data.o
 .bss           0x00000000a011f41c        0x0 Debug\r_bsp.o
 .bss           0x00000000a011f41c        0x0 Debug\p_user.o
 .bss           0x00000000a011f41c        0x0 Debug\p_tick.o
 .bss           0x00000000a011f41c        0x0 Debug\p_telept.o
 .bss           0x00000000a011f41c        0x0 Debug\p_switch.o
 .bss           0x00000000a011f41c        0x0 Debug\p_spec.o
 .bss           0x00000000a011f41c        0x0 Debug\p_sight.o
 .bss           0x00000000a011f41c       0x58 Debug\p_setup.o
 .bss           0x00000000a011f474        0x0 Debug\p_saveg.o
 .bss           0x00000000a011f474        0x0 Debug\p_pspr.o
 .bss           0x00000000a011f474        0x0 Debug\p_plats.o
 .bss           0x00000000a011f474       0x9c Debug\p_mobj.o
 .bss           0x00000000a011f510        0x0 Debug\p_maputl.o
 .bss           0x00000000a011f510        0x0 Debug\p_map.o
 .bss           0x00000000a011f510        0x0 Debug\p_lights.o
 .bss           0x00000000a011f510        0x0 Debug\p_inter.o
 .bss           0x00000000a011f510        0x0 Debug\p_floor.o
 .bss           0x00000000a011f510        0x4 Debug\p_enemy.o
                0x00000000a011f510                braintargeton
 .bss           0x00000000a011f514        0x0 Debug\p_doors.o
 .bss           0x00000000a011f514        0x0 Debug\p_ceilng.o
 .bss           0x00000000a011f514       0x40 Debug\mus2mid.o
 .bss           0x00000000a011f554        0x0 Debug\memio.o
 .bss           0x00000000a011f554        0x8 Debug\m_random.o
                0x00000000a011f558                prndindex
                0x00000000a011f554                rndindex
 .bss           0x00000000a011f55c        0x0 Debug\m_misc.o
 .bss           0x00000000a011f55c        0x4 Debug\m_menu.o
                0x00000000a011f55c                detailLevel
 .bss           0x00000000a011f560        0x0 Debug\m_fixed.o
 .bss           0x00000000a011f560       0x14 Debug\m_controls.o
                0x00000000a011f570                joybfire
                0x00000000a011f56c                key_menu_screenshot
                0x00000000a011f560                mousebfire
                0x00000000a011f564                key_prevweapon
                0x00000000a011f568                key_nextweapon
 .bss           0x00000000a011f574        0x0 Debug\m_config.o
 .bss           0x00000000a011f574        0x0 Debug\m_cheat.o
 .bss           0x00000000a011f574        0x0 Debug\m_bbox.o
 .bss           0x00000000a011f574        0x0 Debug\m_argv.o
 .bss           0x00000000a011f574        0x0 Debug\info.o
 .bss           0x00000000a011f574        0x0 Debug\icon.o
 .bss           0x00000000a011f574      0x644 Debug\i_video.o
                0x00000000a011f578                I_VideoBuffer
                0x00000000a011f574                usemouse
                0x00000000a011f57c                screensaver_mode
                0x00000000a011f580                usegamma
 .bss           0x00000000a011fbb8        0x0 Debug\i_timer.o
 .bss           0x00000000a011fbb8        0xc Debug\i_system.o
 .bss           0x00000000a011fbc4        0x0 Debug\i_sound.o
 .bss           0x00000000a011fbc4        0x0 Debug\i_scale.o
 .bss           0x00000000a011fbc4        0x0 Debug\i_joystick.o
 .bss           0x00000000a011fbc4        0x0 Debug\i_input.o
 .bss           0x00000000a011fbc4        0x0 Debug\i_endoom.o
 .bss           0x00000000a011fbc4        0x0 Debug\i_cdmus.o
 .bss           0x00000000a011fbc4      0x558 Debug\hu_stuff.o
 .bss           0x00000000a012011c        0x0 Debug\hu_lib.o
 .bss           0x00000000a012011c        0x0 Debug\gusconf.o
 .bss           0x00000000a012011c      0x4fc Debug\g_game.o
                0x00000000a012011c                testcontrols
 .bss           0x00000000a0120618        0x0 Debug\f_wipe.o
 .bss           0x00000000a0120618        0x0 Debug\f_finale.o
 .bss           0x00000000a0120618        0x8 Debug\dummy.o
                0x00000000a012061c                drone
                0x00000000a0120618                net_client_connected
 .bss           0x00000000a0120620        0x0 Debug\dstrings.o
 .bss           0x00000000a0120620        0x4 Debug\doomstat.o
                0x00000000a0120620                gamemission
 .bss           0x00000000a0120624       0x24 Debug\doomgeneric_hyperscan.o
                0x00000000a0120624                ticks
 .bss           0x00000000a0120648        0x4 Debug\doomgeneric.o
                0x00000000a0120648                DG_ScreenBuffer
 .bss           0x00000000a012064c        0x0 Debug\doomdef.o
 .bss           0x00000000a012064c       0x50 Debug\d_net.o
 .bss           0x00000000a012069c        0x0 Debug\d_mode.o
 .bss           0x00000000a012069c        0x4 Debug\d_main.o
                0x00000000a012069c                main_loop_started
 .bss           0x00000000a01206a0     0x5034 Debug\d_loop.o
                0x00000000a01206a0                singletics
 .bss           0x00000000a01256d4      0x200 Debug\d_iwad.o
 .bss           0x00000000a01258d4        0x0 Debug\d_items.o
 .bss           0x00000000a01258d4      0x500 Debug\d_event.o
 .bss           0x00000000a0125dd4       0xb0 Debug\am_map.o
                0x00000000a0125dd4                automapactive
 .bss           0x00000000a0125e84   0x800000 Debug\libgloss.o
 .bss           0x00000000a0925e84        0x0 Debug\UART.o
 .bss           0x00000000a0925e84        0x0 Debug\TV.o
 .bss           0x00000000a0925e84        0x0 Debug\NorFlash.o
 .bss           0x00000000a0925e84        0x0 Debug\User_IRQ.o
 .bss           0x00000000a0925e84        0x0 Debug\sys_isr.o
 .bss           0x00000000a0925e84        0x0 Debug\I2C.o
 .bss           0x00000000a0925e84        0x0 Debug\ff.o
 .bss           0x00000000a0925e84        0x0 Debug\diskio.o
 .bss           0x00000000a0925e84        0x0 Debug\HS_Controller.o
 .bss           0x00000000a0925e84        0x0 c:/sunplus/s_core~1.1/gnu/bin/../lib/gcc/score-elf/4.2.1/../../../../score-elf/lib/mel\libc.a(abort.o)
 .bss           0x00000000a0925e84        0x0 c:/sunplus/s_core~1.1/gnu/bin/../lib/gcc/score-elf/4.2.1/../../../../score-elf/lib/mel\libc.a(atof.o)
 .bss           0x00000000a0925e84        0x0 c:/sunplus/s_core~1.1/gnu/bin/../lib/gcc/score-elf/4.2.1/../../../../score-elf/lib/mel\libc.a(atoi.o)
 .bss           0x00000000a0925e84        0x0 c:/sunplus/s_core~1.1/gnu/bin/../lib/gcc/score-elf/4.2.1/../../../../score-elf/lib/mel\libc.a(calloc.o)
 .bss           0x00000000a0925e84        0x0 c:/sunplus/s_core~1.1/gnu/bin/../lib/gcc/score-elf/4.2.1/../../../../score-elf/lib/mel\libc.a(callocr.o)
 .bss           0x00000000a0925e84        0x0 c:/sunplus/s_core~1.1/gnu/bin/../lib/gcc/score-elf/4.2.1/../../../../score-elf/lib/mel\libc.a(ctype_.o)
 .bss           0x00000000a0925e84        0x0 c:/sunplus/s_core~1.1/gnu/bin/../lib/gcc/score-elf/4.2.1/../../../../score-elf/lib/mel\libc.a(errno.o)
 .bss           0x00000000a0925e84        0x0 c:/sunplus/s_core~1.1/gnu/bin/../lib/gcc/score-elf/4.2.1/../../../../score-elf/lib/mel\libc.a(exit.o)
 .bss           0x00000000a0925e84        0x0 c:/sunplus/s_core~1.1/gnu/bin/../lib/gcc/score-elf/4.2.1/../../../../score-elf/lib/mel\libc.a(fclose.o)
 .bss           0x00000000a0925e84        0x0 c:/sunplus/s_core~1.1/gnu/bin/../lib/gcc/score-elf/4.2.1/../../../../score-elf/lib/mel\libc.a(fflush.o)
 .bss           0x00000000a0925e84        0x0 c:/sunplus/s_core~1.1/gnu/bin/../lib/gcc/score-elf/4.2.1/../../../../score-elf/lib/mel\libc.a(findfp.o)
 .bss           0x00000000a0925e84        0x0 c:/sunplus/s_core~1.1/gnu/bin/../lib/gcc/score-elf/4.2.1/../../../../score-elf/lib/mel\libc.a(fopen.o)
 .bss           0x00000000a0925e84        0x0 c:/sunplus/s_core~1.1/gnu/bin/../lib/gcc/score-elf/4.2.1/../../../../score-elf/lib/mel\libc.a(fprintf.o)
 .bss           0x00000000a0925e84        0x0 c:/sunplus/s_core~1.1/gnu/bin/../lib/gcc/score-elf/4.2.1/../../../../score-elf/lib/mel\libc.a(fputc.o)
 .bss           0x00000000a0925e84        0x0 c:/sunplus/s_core~1.1/gnu/bin/../lib/gcc/score-elf/4.2.1/../../../../score-elf/lib/mel\libc.a(fread.o)
 .bss           0x00000000a0925e84        0x0 c:/sunplus/s_core~1.1/gnu/bin/../lib/gcc/score-elf/4.2.1/../../../../score-elf/lib/mel\libc.a(freer.o)
 .bss           0x00000000a0925e84        0x0 c:/sunplus/s_core~1.1/gnu/bin/../lib/gcc/score-elf/4.2.1/../../../../score-elf/lib/mel\libc.a(fseek.o)
 .bss           0x00000000a0925e84        0x0 c:/sunplus/s_core~1.1/gnu/bin/../lib/gcc/score-elf/4.2.1/../../../../score-elf/lib/mel\libc.a(ftell.o)
 .bss           0x00000000a0925e84        0x0 c:/sunplus/s_core~1.1/gnu/bin/../lib/gcc/score-elf/4.2.1/../../../../score-elf/lib/mel\libc.a(fwalk.o)
 .bss           0x00000000a0925e84        0x0 c:/sunplus/s_core~1.1/gnu/bin/../lib/gcc/score-elf/4.2.1/../../../../score-elf/lib/mel\libc.a(fwrite.o)
 .bss           0x00000000a0925e84        0x0 c:/sunplus/s_core~1.1/gnu/bin/../lib/gcc/score-elf/4.2.1/../../../../score-elf/lib/mel\libc.a(impure.o)
 .bss           0x00000000a0925e84        0x0 c:/sunplus/s_core~1.1/gnu/bin/../lib/gcc/score-elf/4.2.1/../../../../score-elf/lib/mel\libc.a(makebuf.o)
 .bss           0x00000000a0925e84        0x0 c:/sunplus/s_core~1.1/gnu/bin/../lib/gcc/score-elf/4.2.1/../../../../score-elf/lib/mel\libc.a(malloc.o)
 .bss           0x00000000a0925e84       0x34 c:/sunplus/s_core~1.1/gnu/bin/../lib/gcc/score-elf/4.2.1/../../../../score-elf/lib/mel\libc.a(mallocr.o)
                0x00000000a0925e84                __malloc_top_pad
                0x00000000a0925e88                __malloc_max_sbrked_mem
                0x00000000a0925e90                __malloc_current_mallinfo
                0x00000000a0925e8c                __malloc_max_total_mem
 .bss           0x00000000a0925eb8        0x0 c:/sunplus/s_core~1.1/gnu/bin/../lib/gcc/score-elf/4.2.1/../../../../score-elf/lib/mel\libc.a(memcmp.o)
 .bss           0x00000000a0925eb8        0x0 c:/sunplus/s_core~1.1/gnu/bin/../lib/gcc/score-elf/4.2.1/../../../../score-elf/lib/mel\libc.a(memcpy.o)
 .bss           0x00000000a0925eb8        0x0 c:/sunplus/s_core~1.1/gnu/bin/../lib/gcc/score-elf/4.2.1/../../../../score-elf/lib/mel\libc.a(memmove.o)
 .bss           0x00000000a0925eb8        0x0 c:/sunplus/s_core~1.1/gnu/bin/../lib/gcc/score-elf/4.2.1/../../../../score-elf/lib/mel\libc.a(memset.o)
 .bss           0x00000000a0925eb8        0x0 c:/sunplus/s_core~1.1/gnu/bin/../lib/gcc/score-elf/4.2.1/../../../../score-elf/lib/mel\libc.a(mlock.o)
 .bss           0x00000000a0925eb8        0x0 c:/sunplus/s_core~1.1/gnu/bin/../lib/gcc/score-elf/4.2.1/../../../../score-elf/lib/mel\libc.a(printf.o)
 .bss           0x00000000a0925eb8        0x0 c:/sunplus/s_core~1.1/gnu/bin/../lib/gcc/score-elf/4.2.1/../../../../score-elf/lib/mel\libc.a(putchar.o)
 .bss           0x00000000a0925eb8        0x0 c:/sunplus/s_core~1.1/gnu/bin/../lib/gcc/score-elf/4.2.1/../../../../score-elf/lib/mel\libc.a(puts.o)
 .bss           0x00000000a0925eb8        0x0 c:/sunplus/s_core~1.1/gnu/bin/../lib/gcc/score-elf/4.2.1/../../../../score-elf/lib/mel\libc.a(realloc.o)
 .bss           0x00000000a0925eb8        0x0 c:/sunplus/s_core~1.1/gnu/bin/../lib/gcc/score-elf/4.2.1/../../../../score-elf/lib/mel\libc.a(reallocr.o)
 .bss           0x00000000a0925eb8        0x0 c:/sunplus/s_core~1.1/gnu/bin/../lib/gcc/score-elf/4.2.1/../../../../score-elf/lib/mel\libc.a(refill.o)
 .bss           0x00000000a0925eb8        0x0 c:/sunplus/s_core~1.1/gnu/bin/../lib/gcc/score-elf/4.2.1/../../../../score-elf/lib/mel\libc.a(remove.o)
 .bss           0x00000000a0925eb8        0x0 c:/sunplus/s_core~1.1/gnu/bin/../lib/gcc/score-elf/4.2.1/../../../../score-elf/lib/mel\libc.a(rename.o)
 .bss           0x00000000a0925eb8        0x0 c:/sunplus/s_core~1.1/gnu/bin/../lib/gcc/score-elf/4.2.1/../../../../score-elf/lib/mel\libc.a(signal.o)
 .bss           0x00000000a0925eb8        0x0 c:/sunplus/s_core~1.1/gnu/bin/../lib/gcc/score-elf/4.2.1/../../../../score-elf/lib/mel\libc.a(snprintf.o)
 .bss           0x00000000a0925eb8        0x0 c:/sunplus/s_core~1.1/gnu/bin/../lib/gcc/score-elf/4.2.1/../../../../score-elf/lib/mel\libc.a(sscanf.o)
 .bss           0x00000000a0925eb8        0x0 c:/sunplus/s_core~1.1/gnu/bin/../lib/gcc/score-elf/4.2.1/../../../../score-elf/lib/mel\libc.a(stdio.o)
 .bss           0x00000000a0925eb8        0x0 c:/sunplus/s_core~1.1/gnu/bin/../lib/gcc/score-elf/4.2.1/../../../../score-elf/lib/mel\libc.a(strcasecmp.o)
 .bss           0x00000000a0925eb8        0x0 c:/sunplus/s_core~1.1/gnu/bin/../lib/gcc/score-elf/4.2.1/../../../../score-elf/lib/mel\libc.a(strchr.o)
 .bss           0x00000000a0925eb8        0x0 c:/sunplus/s_core~1.1/gnu/bin/../lib/gcc/score-elf/4.2.1/../../../../score-elf/lib/mel\libc.a(strcmp.o)
 .bss           0x00000000a0925eb8        0x0 c:/sunplus/s_core~1.1/gnu/bin/../lib/gcc/score-elf/4.2.1/../../../../score-elf/lib/mel\libc.a(strdup.o)
 .bss           0x00000000a0925eb8        0x0 c:/sunplus/s_core~1.1/gnu/bin/../lib/gcc/score-elf/4.2.1/../../../../score-elf/lib/mel\libc.a(strdup_r.o)
 .bss           0x00000000a0925eb8        0x0 c:/sunplus/s_core~1.1/gnu/bin/../lib/gcc/score-elf/4.2.1/../../../../score-elf/lib/mel\libc.a(strlen.o)
 .bss           0x00000000a0925eb8        0x0 c:/sunplus/s_core~1.1/gnu/bin/../lib/gcc/score-elf/4.2.1/../../../../score-elf/lib/mel\libc.a(strncasecmp.o)
 .bss           0x00000000a0925eb8        0x0 c:/sunplus/s_core~1.1/gnu/bin/../lib/gcc/score-elf/4.2.1/../../../../score-elf/lib/mel\libc.a(strncmp.o)
 .bss           0x00000000a0925eb8        0x0 c:/sunplus/s_core~1.1/gnu/bin/../lib/gcc/score-elf/4.2.1/../../../../score-elf/lib/mel\libc.a(strncpy.o)
 .bss           0x00000000a0925eb8        0x0 c:/sunplus/s_core~1.1/gnu/bin/../lib/gcc/score-elf/4.2.1/../../../../score-elf/lib/mel\libc.a(strrchr.o)
 .bss           0x00000000a0925eb8        0x0 c:/sunplus/s_core~1.1/gnu/bin/../lib/gcc/score-elf/4.2.1/../../../../score-elf/lib/mel\libc.a(strstr.o)
 .bss           0x00000000a0925eb8        0x0 c:/sunplus/s_core~1.1/gnu/bin/../lib/gcc/score-elf/4.2.1/../../../../score-elf/lib/mel\libc.a(strtod.o)
 .bss           0x00000000a0925eb8        0x0 c:/sunplus/s_core~1.1/gnu/bin/../lib/gcc/score-elf/4.2.1/../../../../score-elf/lib/mel\libc.a(strtol.o)
 .bss           0x00000000a0925eb8        0x0 c:/sunplus/s_core~1.1/gnu/bin/../lib/gcc/score-elf/4.2.1/../../../../score-elf/lib/mel\libc.a(sysread.o)
 .bss           0x00000000a0925eb8        0x0 c:/sunplus/s_core~1.1/gnu/bin/../lib/gcc/score-elf/4.2.1/../../../../score-elf/lib/mel\libc.a(system.o)
 .bss           0x00000000a0925eb8        0x0 c:/sunplus/s_core~1.1/gnu/bin/../lib/gcc/score-elf/4.2.1/../../../../score-elf/lib/mel\libc.a(syswrite.o)
 .bss           0x00000000a0925eb8        0x0 c:/sunplus/s_core~1.1/gnu/bin/../lib/gcc/score-elf/4.2.1/../../../../score-elf/lib/mel\libc.a(vfprintf.o)
 .bss           0x00000000a0925eb8        0x0 c:/sunplus/s_core~1.1/gnu/bin/../lib/gcc/score-elf/4.2.1/../../../../score-elf/lib/mel\libc.a(vfscanf.o)
 .bss           0x00000000a0925eb8        0x0 c:/sunplus/s_core~1.1/gnu/bin/../lib/gcc/score-elf/4.2.1/../../../../score-elf/lib/mel\libc.a(vsnprintf.o)
 .bss           0x00000000a0925eb8        0x0 c:/sunplus/s_core~1.1/gnu/bin/../lib/gcc/score-elf/4.2.1/../../../../score-elf/lib/mel\libc.a(wbuf.o)
 .bss           0x00000000a0925eb8        0x0 c:/sunplus/s_core~1.1/gnu/bin/../lib/gcc/score-elf/4.2.1/../../../../score-elf/lib/mel\libc.a(wcrtomb.o)
 .bss           0x00000000a0925eb8        0x0 c:/sunplus/s_core~1.1/gnu/bin/../lib/gcc/score-elf/4.2.1/../../../../score-elf/lib/mel\libc.a(wcsrtombs.o)
 .bss           0x00000000a0925eb8        0x0 c:/sunplus/s_core~1.1/gnu/bin/../lib/gcc/score-elf/4.2.1/../../../../score-elf/lib/mel\libc.a(wctomb_r.o)
 .bss           0x00000000a0925eb8        0x0 c:/sunplus/s_core~1.1/gnu/bin/../lib/gcc/score-elf/4.2.1/../../../../score-elf/lib/mel\libc.a(wsetup.o)
 .bss           0x00000000a0925eb8        0x0 c:/sunplus/s_core~1.1/gnu/bin/../lib/gcc/score-elf/4.2.1/../../../../score-elf/lib/mel\libc.a(dtoa.o)
 .bss           0x00000000a0925eb8        0x0 c:/sunplus/s_core~1.1/gnu/bin/../lib/gcc/score-elf/4.2.1/../../../../score-elf/lib/mel\libc.a(flags.o)
 .bss           0x00000000a0925eb8        0x0 c:/sunplus/s_core~1.1/gnu/bin/../lib/gcc/score-elf/4.2.1/../../../../score-elf/lib/mel\libc.a(fvwrite.o)
 .bss           0x00000000a0925eb8        0x0 c:/sunplus/s_core~1.1/gnu/bin/../lib/gcc/score-elf/4.2.1/../../../../score-elf/lib/mel\libc.a(iswspace.o)
 .bss           0x00000000a0925eb8        0xc c:/sunplus/s_core~1.1/gnu/bin/../lib/gcc/score-elf/4.2.1/../../../../score-elf/lib/mel\libc.a(locale.o)
                0x00000000a0925eb8                __nlocale_changed
                0x00000000a0925ebc                __mlocale_changed
                0x00000000a0925ec0                _PathLocale
 .bss           0x00000000a0925ec4        0x0 c:/sunplus/s_core~1.1/gnu/bin/../lib/gcc/score-elf/4.2.1/../../../../score-elf/lib/mel\libc.a(mbrtowc.o)
 .bss           0x00000000a0925ec4        0x0 c:/sunplus/s_core~1.1/gnu/bin/../lib/gcc/score-elf/4.2.1/../../../../score-elf/lib/mel\libc.a(mbtowc_r.o)
 .bss           0x00000000a0925ec4        0x0 c:/sunplus/s_core~1.1/gnu/bin/../lib/gcc/score-elf/4.2.1/../../../../score-elf/lib/mel\libc.a(memchr.o)
 .bss           0x00000000a0925ec4        0x0 c:/sunplus/s_core~1.1/gnu/bin/../lib/gcc/score-elf/4.2.1/../../../../score-elf/lib/mel\libc.a(mprec.o)
 .bss           0x00000000a0925ec4        0x0 c:/sunplus/s_core~1.1/gnu/bin/../lib/gcc/score-elf/4.2.1/../../../../score-elf/lib/mel\libc.a(s_infconst.o)
 .bss           0x00000000a0925ec4        0x0 c:/sunplus/s_core~1.1/gnu/bin/../lib/gcc/score-elf/4.2.1/../../../../score-elf/lib/mel\libc.a(s_isinf.o)
 .bss           0x00000000a0925ec4        0x0 c:/sunplus/s_core~1.1/gnu/bin/../lib/gcc/score-elf/4.2.1/../../../../score-elf/lib/mel\libc.a(s_isnan.o)
 .bss           0x00000000a0925ec4        0x0 c:/sunplus/s_core~1.1/gnu/bin/../lib/gcc/score-elf/4.2.1/../../../../score-elf/lib/mel\libc.a(sprintf.o)
 .bss           0x00000000a0925ec4        0x0 c:/sunplus/s_core~1.1/gnu/bin/../lib/gcc/score-elf/4.2.1/../../../../score-elf/lib/mel\libc.a(strtoll_r.o)
 .bss           0x00000000a0925ec4        0x0 c:/sunplus/s_core~1.1/gnu/bin/../lib/gcc/score-elf/4.2.1/../../../../score-elf/lib/mel\libc.a(strtoull_r.o)
 .bss           0x00000000a0925ec4        0x0 c:/sunplus/s_core~1.1/gnu/bin/../lib/gcc/score-elf/4.2.1/../../../../score-elf/lib/mel\libc.a(strtoul.o)
 .bss           0x00000000a0925ec4        0x0 c:/sunplus/s_core~1.1/gnu/bin/../lib/gcc/score-elf/4.2.1/../../../../score-elf/lib/mel\libc.a(ungetc.o)
 .bss           0x00000000a0925ec4        0x0 c:/sunplus/s_core~1.1/gnu/bin/../lib/gcc/score-elf/4.2.1/mel\libgcc.a(_addsub_sf.o)
 .bss           0x00000000a0925ec4        0x0 c:/sunplus/s_core~1.1/gnu/bin/../lib/gcc/score-elf/4.2.1/mel\libgcc.a(_addsub_df.o)
 .bss           0x00000000a0925ec4        0x0 c:/sunplus/s_core~1.1/gnu/bin/../lib/gcc/score-elf/4.2.1/mel\libgcc.a(_mulsf3.o)
 .bss           0x00000000a0925ec4        0x0 c:/sunplus/s_core~1.1/gnu/bin/../lib/gcc/score-elf/4.2.1/mel\libgcc.a(_muldf3.o)
 .bss           0x00000000a0925ec4        0x0 c:/sunplus/s_core~1.1/gnu/bin/../lib/gcc/score-elf/4.2.1/mel\libgcc.a(_divsf3.o)
 .bss           0x00000000a0925ec4        0x0 c:/sunplus/s_core~1.1/gnu/bin/../lib/gcc/score-elf/4.2.1/mel\libgcc.a(_divdf3.o)
 .bss           0x00000000a0925ec4        0x0 c:/sunplus/s_core~1.1/gnu/bin/../lib/gcc/score-elf/4.2.1/mel\libgcc.a(_clz32.o)
 .bss           0x00000000a0925ec4        0x0 c:/sunplus/s_core~1.1/gnu/bin/../lib/gcc/score-elf/4.2.1/mel\libgcc.a(_clz64.o)
 .bss           0x00000000a0925ec4        0x0 c:/sunplus/s_core~1.1/gnu/bin/../lib/gcc/score-elf/4.2.1/mel\libgcc.a(_floatsisf.o)
 .bss           0x00000000a0925ec4        0x0 c:/sunplus/s_core~1.1/gnu/bin/../lib/gcc/score-elf/4.2.1/mel\libgcc.a(_floatsidf.o)
 .bss           0x00000000a0925ec4        0x0 c:/sunplus/s_core~1.1/gnu/bin/../lib/gcc/score-elf/4.2.1/mel\libgcc.a(_floatunsidf.o)
 .bss           0x00000000a0925ec4        0x0 c:/sunplus/s_core~1.1/gnu/bin/../lib/gcc/score-elf/4.2.1/mel\libgcc.a(_sf_to_df.o)
 .bss           0x00000000a0925ec4        0x0 c:/sunplus/s_core~1.1/gnu/bin/../lib/gcc/score-elf/4.2.1/mel\libgcc.a(_df_to_sf.o)
 .bss           0x00000000a0925ec4        0x0 c:/sunplus/s_core~1.1/gnu/bin/../lib/gcc/score-elf/4.2.1/mel\libgcc.a(_fixsfsi.o)
 .bss           0x00000000a0925ec4        0x0 c:/sunplus/s_core~1.1/gnu/bin/../lib/gcc/score-elf/4.2.1/mel\libgcc.a(_fixdfsi.o)
 .bss           0x00000000a0925ec4        0x0 c:/sunplus/s_core~1.1/gnu/bin/../lib/gcc/score-elf/4.2.1/mel\libgcc.a(_fpcmp_parts_df.o)
 .bss           0x00000000a0925ec4        0x0 c:/sunplus/s_core~1.1/gnu/bin/../lib/gcc/score-elf/4.2.1/mel\libgcc.a(_divdi3.o)
 .bss           0x00000000a0925ec4        0x0 c:/sunplus/s_core~1.1/gnu/bin/../lib/gcc/score-elf/4.2.1/mel\libgcc.a(_udivdi3.o)
 .bss           0x00000000a0925ec4        0x0 c:/sunplus/s_core~1.1/gnu/bin/../lib/gcc/score-elf/4.2.1/mel\libgcc.a(_umoddi3.o)
 .bss           0x00000000a0925ec4        0x0 c:/sunplus/s_core~1.1/gnu/bin/../lib/gcc/score-elf/4.2.1/mel\libgcc.a(_clz.o)
 *(COMMON)
 COMMON         0x00000000a0925ec4       0x10 Debug\v_video.o
                0x00000000a0925ec4                dirtybox
 COMMON         0x00000000a0925ed4     0x26a4 Debug\r_things.o
                0x00000000a0925ed4                vissprites
                0x00000000a0927cd4                sprtemp
                0x00000000a0928000                vsprsortedhead
                0x00000000a092803c                screenheightarray
                0x00000000a09282bc                overflowsprite
                0x00000000a09282f8                negonearray
 COMMON         0x00000000a0928578    0x20be0 Debug\r_plane.o
                0x00000000a0928578                visplanes
                0x00000000a093d178                distscale
                0x00000000a093d678                openings
                0x00000000a0947678                floorclip
                0x00000000a09478f8                cachedxstep
                0x00000000a0947c18                spanstop
                0x00000000a0947f38                spanstart
                0x00000000a0948258                cachedystep
                0x00000000a0948578                ceilingclip
                0x00000000a09487f8                yslope
                0x00000000a0948b18                cachedheight
                0x00000000a0948e38                cacheddistance
 COMMON         0x00000000a0949158     0x71c4 Debug\r_main.o
                0x00000000a0949158                zlight
                0x00000000a094b158                viewangletox
                0x00000000a094f158                xtoviewangle
                0x00000000a094f65c                scalelight
                0x00000000a095025c                scalelightfixed
 COMMON         0x00000000a095031c     0x2180 Debug\r_draw.o
                0x00000000a095031c                ylookup
                0x00000000a095101c                columnofs
                0x00000000a095219c                translations
 COMMON         0x00000000a095249c     0x3100 Debug\r_bsp.o
                0x00000000a095249c                solidsegs
                0x00000000a095259c                drawsegs
 COMMON         0x00000000a095559c        0xc Debug\p_tick.o
                0x00000000a095559c                thinkercap
 COMMON         0x00000000a09555a8      0x2d0 Debug\p_switch.o
                0x00000000a09555a8                switchlist
                0x00000000a0955738                buttonlist
 COMMON         0x00000000a0955878      0x380 Debug\p_spec.o
                0x00000000a0955878                linespeciallist
                0x00000000a0955978                anims
 COMMON         0x00000000a0955bf8       0x10 Debug\p_sight.o
                0x00000000a0955bf8                strace
 COMMON         0x00000000a0955c08       0x8c Debug\p_setup.o
                0x00000000a0955c08                playerstarts
                0x00000000a0955c30                deathmatchstarts
 COMMON         0x00000000a0955c94       0x78 Debug\p_plats.o
                0x00000000a0955c94                activeplats
 COMMON         0x00000000a0955d0c      0x700 Debug\p_mobj.o
                0x00000000a0955d0c                itemrespawntime
                0x00000000a0955f0c                itemrespawnque
 COMMON         0x00000000a095640c      0x8ec Debug\p_maputl.o
                0x00000000a095640c                trace
                0x00000000a095641c                intercepts
 COMMON         0x00000000a0956cf8       0x60 Debug\p_map.o
                0x00000000a0956cf8                tmbbox
                0x00000000a0956d08                spechit
 COMMON         0x00000000a0956d58       0x80 Debug\p_enemy.o
                0x00000000a0956d58                braintargets
 COMMON         0x00000000a0956dd8       0x78 Debug\p_ceilng.o
                0x00000000a0956dd8                activeceilings
 COMMON         0x00000000a0956e50      0x1f8 Debug\m_menu.o
                0x00000000a0956e50                saveOldString
                0x00000000a0956e68                endstring
                0x00000000a0956f08                tempstring
                0x00000000a0956f58                savegamestrings
 COMMON         0x00000000a0957048       0x20 Debug\m_controls.o
                0x00000000a0957048                key_multi_msgplayer
 COMMON         0x00000000a0957068       0xfc Debug\hu_stuff.o
                0x00000000a0957068                hu_font
 COMMON         0x00000000a0957164      0x8e8 Debug\g_game.o
                0x00000000a0957164                bodyque
                0x00000000a09571e4                savename
                0x00000000a09572e4                players
                0x00000000a0957764                wminfo
                0x00000000a095782c                consistancy
                0x00000000a0957a2c                playeringame
                0x00000000a0957a3c                turbodetected
 COMMON         0x00000000a0957a4c      0x880 Debug\d_main.o
                0x00000000a0957a4c                wadfile
                0x00000000a0957e4c                title
                0x00000000a0957ecc                mapdir
 COMMON         0x00000000a09582cc      0x230 Debug\libgloss.o
                0x00000000a09582cc                fs
                0x00000000a09584fc                . = ALIGN (0x4)
                0x00000000a09584fc                . = ALIGN (0x4)
                0x00000000a09584fc                _end = .
                0x00000000a09584fc                _bss_end__ = .
                0x00000000a09584fc                __bss_end__ = .
                0x00000000a09584fc                __end__ = .
                0x00000000a09584fc                PROVIDE (end, .)

.stab
 *(.stab)

.stabstr
 *(.stabstr)

.stab.excl
 *(.stab.excl)

.stab.exclstr
 *(.stab.exclstr)

.stab.index
 *(.stab.index)

.stab.indexstr
 *(.stab.indexstr)

.comment        0x0000000000000000      0xca8
 *(.comment)
 .comment       0x0000000000000000       0x12 Debug\z_zone.o
 .comment       0x0000000000000012       0x12 Debug\wi_stuff.o
 .comment       0x0000000000000024       0x12 Debug\w_wad.o
 .comment       0x0000000000000036       0x12 Debug\w_main.o
 .comment       0x0000000000000048       0x12 Debug\w_file_stdc.o
 .comment       0x000000000000005a       0x12 Debug\w_file.o
 .comment       0x000000000000006c       0x12 Debug\w_checksum.o
 .comment       0x000000000000007e       0x12 Debug\v_video.o
 .comment       0x0000000000000090       0x12 Debug\tables.o
 .comment       0x00000000000000a2       0x12 Debug\statdump.o
 .comment       0x00000000000000b4       0x12 Debug\st_stuff.o
 .comment       0x00000000000000c6       0x12 Debug\st_lib.o
 .comment       0x00000000000000d8       0x12 Debug\sounds.o
 .comment       0x00000000000000ea       0x12 Debug\sha1.o
 .comment       0x00000000000000fc       0x12 Debug\s_sound.o
 .comment       0x000000000000010e       0x12 Debug\r_things.o
 .comment       0x0000000000000120       0x12 Debug\r_sky.o
 .comment       0x0000000000000132       0x12 Debug\r_segs.o
 .comment       0x0000000000000144       0x12 Debug\r_plane.o
 .comment       0x0000000000000156       0x12 Debug\r_main.o
 .comment       0x0000000000000168       0x12 Debug\r_draw.o
 .comment       0x000000000000017a       0x12 Debug\r_data.o
 .comment       0x000000000000018c       0x12 Debug\r_bsp.o
 .comment       0x000000000000019e       0x12 Debug\p_user.o
 .comment       0x00000000000001b0       0x12 Debug\p_tick.o
 .comment       0x00000000000001c2       0x12 Debug\p_telept.o
 .comment       0x00000000000001d4       0x12 Debug\p_switch.o
 .comment       0x00000000000001e6       0x12 Debug\p_spec.o
 .comment       0x00000000000001f8       0x12 Debug\p_sight.o
 .comment       0x000000000000020a       0x12 Debug\p_setup.o
 .comment       0x000000000000021c       0x12 Debug\p_saveg.o
 .comment       0x000000000000022e       0x12 Debug\p_pspr.o
 .comment       0x0000000000000240       0x12 Debug\p_plats.o
 .comment       0x0000000000000252       0x12 Debug\p_mobj.o
 .comment       0x0000000000000264       0x12 Debug\p_maputl.o
 .comment       0x0000000000000276       0x12 Debug\p_map.o
 .comment       0x0000000000000288       0x12 Debug\p_lights.o
 .comment       0x000000000000029a       0x12 Debug\p_inter.o
 .comment       0x00000000000002ac       0x12 Debug\p_floor.o
 .comment       0x00000000000002be       0x12 Debug\p_enemy.o
 .comment       0x00000000000002d0       0x12 Debug\p_doors.o
 .comment       0x00000000000002e2       0x12 Debug\p_ceilng.o
 .comment       0x00000000000002f4       0x12 Debug\mus2mid.o
 .comment       0x0000000000000306       0x12 Debug\memio.o
 .comment       0x0000000000000318       0x12 Debug\m_random.o
 .comment       0x000000000000032a       0x12 Debug\m_misc.o
 .comment       0x000000000000033c       0x12 Debug\m_menu.o
 .comment       0x000000000000034e       0x12 Debug\m_fixed.o
 .comment       0x0000000000000360       0x12 Debug\m_controls.o
 .comment       0x0000000000000372       0x12 Debug\m_config.o
 .comment       0x0000000000000384       0x12 Debug\m_cheat.o
 .comment       0x0000000000000396       0x12 Debug\m_bbox.o
 .comment       0x00000000000003a8       0x12 Debug\m_argv.o
 .comment       0x00000000000003ba       0x12 Debug\info.o
 .comment       0x00000000000003cc       0x12 Debug\icon.o
 .comment       0x00000000000003de       0x12 Debug\i_video.o
 .comment       0x00000000000003f0       0x12 Debug\i_timer.o
 .comment       0x0000000000000402       0x12 Debug\i_system.o
 .comment       0x0000000000000414       0x12 Debug\i_sound.o
 .comment       0x0000000000000426       0x12 Debug\i_scale.o
 .comment       0x0000000000000438       0x12 Debug\i_joystick.o
 .comment       0x000000000000044a       0x12 Debug\i_input.o
 .comment       0x000000000000045c       0x12 Debug\i_endoom.o
 .comment       0x000000000000046e       0x12 Debug\i_cdmus.o
 .comment       0x0000000000000480       0x12 Debug\hu_stuff.o
 .comment       0x0000000000000492       0x12 Debug\hu_lib.o
 .comment       0x00000000000004a4       0x12 Debug\gusconf.o
 .comment       0x00000000000004b6       0x12 Debug\g_game.o
 .comment       0x00000000000004c8       0x12 Debug\f_wipe.o
 .comment       0x00000000000004da       0x12 Debug\f_finale.o
 .comment       0x00000000000004ec       0x12 Debug\dummy.o
 .comment       0x00000000000004fe       0x12 Debug\dstrings.o
 .comment       0x0000000000000510       0x12 Debug\doomstat.o
 .comment       0x0000000000000522       0x12 Debug\doomgeneric_hyperscan.o
 .comment       0x0000000000000534       0x12 Debug\doomgeneric.o
 .comment       0x0000000000000546       0x12 Debug\doomdef.o
 .comment       0x0000000000000558       0x12 Debug\d_net.o
 .comment       0x000000000000056a       0x12 Debug\d_mode.o
 .comment       0x000000000000057c       0x12 Debug\d_main.o
 .comment       0x000000000000058e       0x12 Debug\d_loop.o
 .comment       0x00000000000005a0       0x12 Debug\d_iwad.o
 .comment       0x00000000000005b2       0x12 Debug\d_items.o
 .comment       0x00000000000005c4       0x12 Debug\d_event.o
 .comment       0x00000000000005d6       0x12 Debug\am_map.o
 .comment       0x00000000000005e8       0x12 Debug\libgloss.o
 .comment       0x00000000000005fa       0x12 Debug\UART.o
 .comment       0x000000000000060c       0x12 Debug\TV.o
 .comment       0x000000000000061e       0x12 Debug\NorFlash.o
 .comment       0x0000000000000630       0x12 Debug\User_IRQ.o
 .comment       0x0000000000000642       0x12 Debug\sys_isr.o
 .comment       0x0000000000000654       0x12 Debug\I2C.o
 .comment       0x0000000000000666       0x12 Debug\ff.o
 .comment       0x0000000000000678       0x12 Debug\diskio.o
 .comment       0x000000000000068a       0x12 Debug\HS_Controller.o
 .comment       0x000000000000069c       0x12 c:/sunplus/s_core~1.1/gnu/bin/../lib/gcc/score-elf/4.2.1/../../../../score-elf/lib/mel\libc.a(abort.o)
 .comment       0x00000000000006ae       0x12 c:/sunplus/s_core~1.1/gnu/bin/../lib/gcc/score-elf/4.2.1/../../../../score-elf/lib/mel\libc.a(atof.o)
 .comment       0x00000000000006c0       0x12 c:/sunplus/s_core~1.1/gnu/bin/../lib/gcc/score-elf/4.2.1/../../../../score-elf/lib/mel\libc.a(atoi.o)
 .comment       0x00000000000006d2       0x12 c:/sunplus/s_core~1.1/gnu/bin/../lib/gcc/score-elf/4.2.1/../../../../score-elf/lib/mel\libc.a(calloc.o)
 .comment       0x00000000000006e4       0x12 c:/sunplus/s_core~1.1/gnu/bin/../lib/gcc/score-elf/4.2.1/../../../../score-elf/lib/mel\libc.a(callocr.o)
 .comment       0x00000000000006f6       0x12 c:/sunplus/s_core~1.1/gnu/bin/../lib/gcc/score-elf/4.2.1/../../../../score-elf/lib/mel\libc.a(ctype_.o)
 .comment       0x0000000000000708       0x12 c:/sunplus/s_core~1.1/gnu/bin/../lib/gcc/score-elf/4.2.1/../../../../score-elf/lib/mel\libc.a(errno.o)
 .comment       0x000000000000071a       0x12 c:/sunplus/s_core~1.1/gnu/bin/../lib/gcc/score-elf/4.2.1/../../../../score-elf/lib/mel\libc.a(exit.o)
 .comment       0x000000000000072c       0x12 c:/sunplus/s_core~1.1/gnu/bin/../lib/gcc/score-elf/4.2.1/../../../../score-elf/lib/mel\libc.a(fclose.o)
 .comment       0x000000000000073e       0x12 c:/sunplus/s_core~1.1/gnu/bin/../lib/gcc/score-elf/4.2.1/../../../../score-elf/lib/mel\libc.a(fflush.o)
 .comment       0x0000000000000750       0x12 c:/sunplus/s_core~1.1/gnu/bin/../lib/gcc/score-elf/4.2.1/../../../../score-elf/lib/mel\libc.a(findfp.o)
 .comment       0x0000000000000762       0x12 c:/sunplus/s_core~1.1/gnu/bin/../lib/gcc/score-elf/4.2.1/../../../../score-elf/lib/mel\libc.a(fopen.o)
 .comment       0x0000000000000774       0x12 c:/sunplus/s_core~1.1/gnu/bin/../lib/gcc/score-elf/4.2.1/../../../../score-elf/lib/mel\libc.a(fprintf.o)
 .comment       0x0000000000000786       0x12 c:/sunplus/s_core~1.1/gnu/bin/../lib/gcc/score-elf/4.2.1/../../../../score-elf/lib/mel\libc.a(fputc.o)
 .comment       0x0000000000000798       0x12 c:/sunplus/s_core~1.1/gnu/bin/../lib/gcc/score-elf/4.2.1/../../../../score-elf/lib/mel\libc.a(fread.o)
 .comment       0x00000000000007aa       0x12 c:/sunplus/s_core~1.1/gnu/bin/../lib/gcc/score-elf/4.2.1/../../../../score-elf/lib/mel\libc.a(freer.o)
 .comment       0x00000000000007bc       0x12 c:/sunplus/s_core~1.1/gnu/bin/../lib/gcc/score-elf/4.2.1/../../../../score-elf/lib/mel\libc.a(fseek.o)
 .comment       0x00000000000007ce       0x12 c:/sunplus/s_core~1.1/gnu/bin/../lib/gcc/score-elf/4.2.1/../../../../score-elf/lib/mel\libc.a(ftell.o)
 .comment       0x00000000000007e0       0x12 c:/sunplus/s_core~1.1/gnu/bin/../lib/gcc/score-elf/4.2.1/../../../../score-elf/lib/mel\libc.a(fwalk.o)
 .comment       0x00000000000007f2       0x12 c:/sunplus/s_core~1.1/gnu/bin/../lib/gcc/score-elf/4.2.1/../../../../score-elf/lib/mel\libc.a(fwrite.o)
 .comment       0x0000000000000804       0x12 c:/sunplus/s_core~1.1/gnu/bin/../lib/gcc/score-elf/4.2.1/../../../../score-elf/lib/mel\libc.a(impure.o)
 .comment       0x0000000000000816       0x12 c:/sunplus/s_core~1.1/gnu/bin/../lib/gcc/score-elf/4.2.1/../../../../score-elf/lib/mel\libc.a(makebuf.o)
 .comment       0x0000000000000828       0x12 c:/sunplus/s_core~1.1/gnu/bin/../lib/gcc/score-elf/4.2.1/../../../../score-elf/lib/mel\libc.a(malloc.o)
 .comment       0x000000000000083a       0x12 c:/sunplus/s_core~1.1/gnu/bin/../lib/gcc/score-elf/4.2.1/../../../../score-elf/lib/mel\libc.a(mallocr.o)
 .comment       0x000000000000084c       0x12 c:/sunplus/s_core~1.1/gnu/bin/../lib/gcc/score-elf/4.2.1/../../../../score-elf/lib/mel\libc.a(memcmp.o)
 .comment       0x000000000000085e       0x12 c:/sunplus/s_core~1.1/gnu/bin/../lib/gcc/score-elf/4.2.1/../../../../score-elf/lib/mel\libc.a(memcpy.o)
 .comment       0x0000000000000870       0x12 c:/sunplus/s_core~1.1/gnu/bin/../lib/gcc/score-elf/4.2.1/../../../../score-elf/lib/mel\libc.a(memmove.o)
 .comment       0x0000000000000882       0x12 c:/sunplus/s_core~1.1/gnu/bin/../lib/gcc/score-elf/4.2.1/../../../../score-elf/lib/mel\libc.a(memset.o)
 .comment       0x0000000000000894       0x12 c:/sunplus/s_core~1.1/gnu/bin/../lib/gcc/score-elf/4.2.1/../../../../score-elf/lib/mel\libc.a(mlock.o)
 .comment       0x00000000000008a6       0x12 c:/sunplus/s_core~1.1/gnu/bin/../lib/gcc/score-elf/4.2.1/../../../../score-elf/lib/mel\libc.a(printf.o)
 .comment       0x00000000000008b8       0x12 c:/sunplus/s_core~1.1/gnu/bin/../lib/gcc/score-elf/4.2.1/../../../../score-elf/lib/mel\libc.a(putchar.o)
 .comment       0x00000000000008ca       0x12 c:/sunplus/s_core~1.1/gnu/bin/../lib/gcc/score-elf/4.2.1/../../../../score-elf/lib/mel\libc.a(puts.o)
 .comment       0x00000000000008dc       0x12 c:/sunplus/s_core~1.1/gnu/bin/../lib/gcc/score-elf/4.2.1/../../../../score-elf/lib/mel\libc.a(realloc.o)
 .comment       0x00000000000008ee       0x12 c:/sunplus/s_core~1.1/gnu/bin/../lib/gcc/score-elf/4.2.1/../../../../score-elf/lib/mel\libc.a(reallocr.o)
 .comment       0x0000000000000900       0x12 c:/sunplus/s_core~1.1/gnu/bin/../lib/gcc/score-elf/4.2.1/../../../../score-elf/lib/mel\libc.a(refill.o)
 .comment       0x0000000000000912       0x12 c:/sunplus/s_core~1.1/gnu/bin/../lib/gcc/score-elf/4.2.1/../../../../score-elf/lib/mel\libc.a(remove.o)
 .comment       0x0000000000000924       0x12 c:/sunplus/s_core~1.1/gnu/bin/../lib/gcc/score-elf/4.2.1/../../../../score-elf/lib/mel\libc.a(rename.o)
 .comment       0x0000000000000936       0x12 c:/sunplus/s_core~1.1/gnu/bin/../lib/gcc/score-elf/4.2.1/../../../../score-elf/lib/mel\libc.a(signal.o)
 .comment       0x0000000000000948       0x12 c:/sunplus/s_core~1.1/gnu/bin/../lib/gcc/score-elf/4.2.1/../../../../score-elf/lib/mel\libc.a(snprintf.o)
 .comment       0x000000000000095a       0x12 c:/sunplus/s_core~1.1/gnu/bin/../lib/gcc/score-elf/4.2.1/../../../../score-elf/lib/mel\libc.a(sscanf.o)
 .comment       0x000000000000096c       0x12 c:/sunplus/s_core~1.1/gnu/bin/../lib/gcc/score-elf/4.2.1/../../../../score-elf/lib/mel\libc.a(stdio.o)
 .comment       0x000000000000097e       0x12 c:/sunplus/s_core~1.1/gnu/bin/../lib/gcc/score-elf/4.2.1/../../../../score-elf/lib/mel\libc.a(strcasecmp.o)
 .comment       0x0000000000000990       0x12 c:/sunplus/s_core~1.1/gnu/bin/../lib/gcc/score-elf/4.2.1/../../../../score-elf/lib/mel\libc.a(strchr.o)
 .comment       0x00000000000009a2       0x12 c:/sunplus/s_core~1.1/gnu/bin/../lib/gcc/score-elf/4.2.1/../../../../score-elf/lib/mel\libc.a(strcmp.o)
 .comment       0x00000000000009b4       0x12 c:/sunplus/s_core~1.1/gnu/bin/../lib/gcc/score-elf/4.2.1/../../../../score-elf/lib/mel\libc.a(strdup.o)
 .comment       0x00000000000009c6       0x12 c:/sunplus/s_core~1.1/gnu/bin/../lib/gcc/score-elf/4.2.1/../../../../score-elf/lib/mel\libc.a(strdup_r.o)
 .comment       0x00000000000009d8       0x12 c:/sunplus/s_core~1.1/gnu/bin/../lib/gcc/score-elf/4.2.1/../../../../score-elf/lib/mel\libc.a(strlen.o)
 .comment       0x00000000000009ea       0x12 c:/sunplus/s_core~1.1/gnu/bin/../lib/gcc/score-elf/4.2.1/../../../../score-elf/lib/mel\libc.a(strncasecmp.o)
 .comment       0x00000000000009fc       0x12 c:/sunplus/s_core~1.1/gnu/bin/../lib/gcc/score-elf/4.2.1/../../../../score-elf/lib/mel\libc.a(strncmp.o)
 .comment       0x0000000000000a0e       0x12 c:/sunplus/s_core~1.1/gnu/bin/../lib/gcc/score-elf/4.2.1/../../../../score-elf/lib/mel\libc.a(strncpy.o)
 .comment       0x0000000000000a20       0x12 c:/sunplus/s_core~1.1/gnu/bin/../lib/gcc/score-elf/4.2.1/../../../../score-elf/lib/mel\libc.a(strrchr.o)
 .comment       0x0000000000000a32       0x12 c:/sunplus/s_core~1.1/gnu/bin/../lib/gcc/score-elf/4.2.1/../../../../score-elf/lib/mel\libc.a(strstr.o)
 .comment       0x0000000000000a44       0x12 c:/sunplus/s_core~1.1/gnu/bin/../lib/gcc/score-elf/4.2.1/../../../../score-elf/lib/mel\libc.a(strtod.o)
 .comment       0x0000000000000a56       0x12 c:/sunplus/s_core~1.1/gnu/bin/../lib/gcc/score-elf/4.2.1/../../../../score-elf/lib/mel\libc.a(strtol.o)
 .comment       0x0000000000000a68       0x12 c:/sunplus/s_core~1.1/gnu/bin/../lib/gcc/score-elf/4.2.1/../../../../score-elf/lib/mel\libc.a(sysread.o)
 .comment       0x0000000000000a7a       0x12 c:/sunplus/s_core~1.1/gnu/bin/../lib/gcc/score-elf/4.2.1/../../../../score-elf/lib/mel\libc.a(system.o)
 .comment       0x0000000000000a8c       0x12 c:/sunplus/s_core~1.1/gnu/bin/../lib/gcc/score-elf/4.2.1/../../../../score-elf/lib/mel\libc.a(syswrite.o)
 .comment       0x0000000000000a9e       0x12 c:/sunplus/s_core~1.1/gnu/bin/../lib/gcc/score-elf/4.2.1/../../../../score-elf/lib/mel\libc.a(vfprintf.o)
 .comment       0x0000000000000ab0       0x12 c:/sunplus/s_core~1.1/gnu/bin/../lib/gcc/score-elf/4.2.1/../../../../score-elf/lib/mel\libc.a(vfscanf.o)
 .comment       0x0000000000000ac2       0x12 c:/sunplus/s_core~1.1/gnu/bin/../lib/gcc/score-elf/4.2.1/../../../../score-elf/lib/mel\libc.a(vsnprintf.o)
 .comment       0x0000000000000ad4       0x12 c:/sunplus/s_core~1.1/gnu/bin/../lib/gcc/score-elf/4.2.1/../../../../score-elf/lib/mel\libc.a(wbuf.o)
 .comment       0x0000000000000ae6       0x12 c:/sunplus/s_core~1.1/gnu/bin/../lib/gcc/score-elf/4.2.1/../../../../score-elf/lib/mel\libc.a(wcrtomb.o)
 .comment       0x0000000000000af8       0x12 c:/sunplus/s_core~1.1/gnu/bin/../lib/gcc/score-elf/4.2.1/../../../../score-elf/lib/mel\libc.a(wcsrtombs.o)
 .comment       0x0000000000000b0a       0x12 c:/sunplus/s_core~1.1/gnu/bin/../lib/gcc/score-elf/4.2.1/../../../../score-elf/lib/mel\libc.a(wctomb_r.o)
 .comment       0x0000000000000b1c       0x12 c:/sunplus/s_core~1.1/gnu/bin/../lib/gcc/score-elf/4.2.1/../../../../score-elf/lib/mel\libc.a(wsetup.o)
 .comment       0x0000000000000b2e       0x12 c:/sunplus/s_core~1.1/gnu/bin/../lib/gcc/score-elf/4.2.1/../../../../score-elf/lib/mel\libc.a(dtoa.o)
 .comment       0x0000000000000b40       0x12 c:/sunplus/s_core~1.1/gnu/bin/../lib/gcc/score-elf/4.2.1/../../../../score-elf/lib/mel\libc.a(flags.o)
 .comment       0x0000000000000b52       0x12 c:/sunplus/s_core~1.1/gnu/bin/../lib/gcc/score-elf/4.2.1/../../../../score-elf/lib/mel\libc.a(fvwrite.o)
 .comment       0x0000000000000b64       0x12 c:/sunplus/s_core~1.1/gnu/bin/../lib/gcc/score-elf/4.2.1/../../../../score-elf/lib/mel\libc.a(iswspace.o)
 .comment       0x0000000000000b76       0x12 c:/sunplus/s_core~1.1/gnu/bin/../lib/gcc/score-elf/4.2.1/../../../../score-elf/lib/mel\libc.a(locale.o)
 .comment       0x0000000000000b88       0x12 c:/sunplus/s_core~1.1/gnu/bin/../lib/gcc/score-elf/4.2.1/../../../../score-elf/lib/mel\libc.a(mbrtowc.o)
 .comment       0x0000000000000b9a       0x12 c:/sunplus/s_core~1.1/gnu/bin/../lib/gcc/score-elf/4.2.1/../../../../score-elf/lib/mel\libc.a(mbtowc_r.o)
 .comment       0x0000000000000bac       0x12 c:/sunplus/s_core~1.1/gnu/bin/../lib/gcc/score-elf/4.2.1/../../../../score-elf/lib/mel\libc.a(memchr.o)
 .comment       0x0000000000000bbe       0x12 c:/sunplus/s_core~1.1/gnu/bin/../lib/gcc/score-elf/4.2.1/../../../../score-elf/lib/mel\libc.a(mprec.o)
 .comment       0x0000000000000bd0       0x12 c:/sunplus/s_core~1.1/gnu/bin/../lib/gcc/score-elf/4.2.1/../../../../score-elf/lib/mel\libc.a(s_infconst.o)
 .comment       0x0000000000000be2       0x12 c:/sunplus/s_core~1.1/gnu/bin/../lib/gcc/score-elf/4.2.1/../../../../score-elf/lib/mel\libc.a(s_isinf.o)
 .comment       0x0000000000000bf4       0x12 c:/sunplus/s_core~1.1/gnu/bin/../lib/gcc/score-elf/4.2.1/../../../../score-elf/lib/mel\libc.a(s_isnan.o)
 .comment       0x0000000000000c06       0x12 c:/sunplus/s_core~1.1/gnu/bin/../lib/gcc/score-elf/4.2.1/../../../../score-elf/lib/mel\libc.a(sprintf.o)
 .comment       0x0000000000000c18       0x12 c:/sunplus/s_core~1.1/gnu/bin/../lib/gcc/score-elf/4.2.1/../../../../score-elf/lib/mel\libc.a(strtoll_r.o)
 .comment       0x0000000000000c2a       0x12 c:/sunplus/s_core~1.1/gnu/bin/../lib/gcc/score-elf/4.2.1/../../../../score-elf/lib/mel\libc.a(strtoull_r.o)
 .comment       0x0000000000000c3c       0x12 c:/sunplus/s_core~1.1/gnu/bin/../lib/gcc/score-elf/4.2.1/../../../../score-elf/lib/mel\libc.a(strtoul.o)
 .comment       0x0000000000000c4e       0x12 c:/sunplus/s_core~1.1/gnu/bin/../lib/gcc/score-elf/4.2.1/../../../../score-elf/lib/mel\libc.a(ungetc.o)
 .comment       0x0000000000000c60       0x12 c:/sunplus/s_core~1.1/gnu/bin/../lib/gcc/score-elf/4.2.1/mel\libgcc.a(_divdi3.o)
 .comment       0x0000000000000c72       0x12 c:/sunplus/s_core~1.1/gnu/bin/../lib/gcc/score-elf/4.2.1/mel\libgcc.a(_udivdi3.o)
 .comment       0x0000000000000c84       0x12 c:/sunplus/s_core~1.1/gnu/bin/../lib/gcc/score-elf/4.2.1/mel\libgcc.a(_umoddi3.o)
 .comment       0x0000000000000c96       0x12 c:/sunplus/s_core~1.1/gnu/bin/../lib/gcc/score-elf/4.2.1/mel\libgcc.a(_clz.o)

.debug
 *(.debug)

.line
 *(.line)

.debug_srcinfo
 *(.debug_srcinfo)

.debug_sfnames
 *(.debug_sfnames)

.debug_aranges  0x0000000000000000      0xb08
 *(.debug_aranges)
 .debug_aranges
                0x0000000000000000       0x28 Debug\hyperscan_startup.o
 .debug_aranges
                0x0000000000000028       0x20 Debug\z_zone.o
 .debug_aranges
                0x0000000000000048       0x20 Debug\wi_stuff.o
 .debug_aranges
                0x0000000000000068       0x20 Debug\w_wad.o
 .debug_aranges
                0x0000000000000088       0x20 Debug\w_main.o
 .debug_aranges
                0x00000000000000a8       0x20 Debug\w_file_stdc.o
 .debug_aranges
                0x00000000000000c8       0x20 Debug\w_file.o
 .debug_aranges
                0x00000000000000e8       0x20 Debug\w_checksum.o
 .debug_aranges
                0x0000000000000108       0x20 Debug\v_video.o
 .debug_aranges
                0x0000000000000128       0x20 Debug\tables.o
 .debug_aranges
                0x0000000000000148       0x20 Debug\statdump.o
 .debug_aranges
                0x0000000000000168       0x20 Debug\st_stuff.o
 .debug_aranges
                0x0000000000000188       0x20 Debug\st_lib.o
 .debug_aranges
                0x00000000000001a8       0x20 Debug\sha1.o
 .debug_aranges
                0x00000000000001c8       0x20 Debug\s_sound.o
 .debug_aranges
                0x00000000000001e8       0x20 Debug\r_things.o
 .debug_aranges
                0x0000000000000208       0x20 Debug\r_sky.o
 .debug_aranges
                0x0000000000000228       0x20 Debug\r_segs.o
 .debug_aranges
                0x0000000000000248       0x20 Debug\r_plane.o
 .debug_aranges
                0x0000000000000268       0x20 Debug\r_main.o
 .debug_aranges
                0x0000000000000288       0x20 Debug\r_draw.o
 .debug_aranges
                0x00000000000002a8       0x20 Debug\r_data.o
 .debug_aranges
                0x00000000000002c8       0x20 Debug\r_bsp.o
 .debug_aranges
                0x00000000000002e8       0x20 Debug\p_user.o
 .debug_aranges
                0x0000000000000308       0x20 Debug\p_tick.o
 .debug_aranges
                0x0000000000000328       0x20 Debug\p_telept.o
 .debug_aranges
                0x0000000000000348       0x20 Debug\p_switch.o
 .debug_aranges
                0x0000000000000368       0x20 Debug\p_spec.o
 .debug_aranges
                0x0000000000000388       0x20 Debug\p_sight.o
 .debug_aranges
                0x00000000000003a8       0x20 Debug\p_setup.o
 .debug_aranges
                0x00000000000003c8       0x20 Debug\p_saveg.o
 .debug_aranges
                0x00000000000003e8       0x20 Debug\p_pspr.o
 .debug_aranges
                0x0000000000000408       0x20 Debug\p_plats.o
 .debug_aranges
                0x0000000000000428       0x20 Debug\p_mobj.o
 .debug_aranges
                0x0000000000000448       0x20 Debug\p_maputl.o
 .debug_aranges
                0x0000000000000468       0x20 Debug\p_map.o
 .debug_aranges
                0x0000000000000488       0x20 Debug\p_lights.o
 .debug_aranges
                0x00000000000004a8       0x20 Debug\p_inter.o
 .debug_aranges
                0x00000000000004c8       0x20 Debug\p_floor.o
 .debug_aranges
                0x00000000000004e8       0x20 Debug\p_enemy.o
 .debug_aranges
                0x0000000000000508       0x20 Debug\p_doors.o
 .debug_aranges
                0x0000000000000528       0x20 Debug\p_ceilng.o
 .debug_aranges
                0x0000000000000548       0x20 Debug\mus2mid.o
 .debug_aranges
                0x0000000000000568       0x20 Debug\memio.o
 .debug_aranges
                0x0000000000000588       0x20 Debug\m_random.o
 .debug_aranges
                0x00000000000005a8       0x20 Debug\m_misc.o
 .debug_aranges
                0x00000000000005c8       0x20 Debug\m_menu.o
 .debug_aranges
                0x00000000000005e8       0x20 Debug\m_fixed.o
 .debug_aranges
                0x0000000000000608       0x20 Debug\m_controls.o
 .debug_aranges
                0x0000000000000628       0x20 Debug\m_config.o
 .debug_aranges
                0x0000000000000648       0x20 Debug\m_cheat.o
 .debug_aranges
                0x0000000000000668       0x20 Debug\m_bbox.o
 .debug_aranges
                0x0000000000000688       0x20 Debug\m_argv.o
 .debug_aranges
                0x00000000000006a8       0x20 Debug\i_video.o
 .debug_aranges
                0x00000000000006c8       0x20 Debug\i_timer.o
 .debug_aranges
                0x00000000000006e8       0x20 Debug\i_system.o
 .debug_aranges
                0x0000000000000708       0x20 Debug\i_sound.o
 .debug_aranges
                0x0000000000000728       0x20 Debug\i_scale.o
 .debug_aranges
                0x0000000000000748       0x20 Debug\i_joystick.o
 .debug_aranges
                0x0000000000000768       0x20 Debug\i_input.o
 .debug_aranges
                0x0000000000000788       0x20 Debug\i_endoom.o
 .debug_aranges
                0x00000000000007a8       0x20 Debug\i_cdmus.o
 .debug_aranges
                0x00000000000007c8       0x20 Debug\hu_stuff.o
 .debug_aranges
                0x00000000000007e8       0x20 Debug\hu_lib.o
 .debug_aranges
                0x0000000000000808       0x20 Debug\gusconf.o
 .debug_aranges
                0x0000000000000828       0x20 Debug\g_game.o
 .debug_aranges
                0x0000000000000848       0x20 Debug\f_wipe.o
 .debug_aranges
                0x0000000000000868       0x20 Debug\f_finale.o
 .debug_aranges
                0x0000000000000888       0x20 Debug\dummy.o
 .debug_aranges
                0x00000000000008a8       0x20 Debug\doomgeneric_hyperscan.o
 .debug_aranges
                0x00000000000008c8       0x20 Debug\doomgeneric.o
 .debug_aranges
                0x00000000000008e8       0x20 Debug\d_net.o
 .debug_aranges
                0x0000000000000908       0x20 Debug\d_mode.o
 .debug_aranges
                0x0000000000000928       0x20 Debug\d_main.o
 .debug_aranges
                0x0000000000000948       0x20 Debug\d_loop.o
 .debug_aranges
                0x0000000000000968       0x20 Debug\d_iwad.o
 .debug_aranges
                0x0000000000000988       0x20 Debug\d_event.o
 .debug_aranges
                0x00000000000009a8       0x20 Debug\am_map.o
 .debug_aranges
                0x00000000000009c8       0x20 Debug\libgloss.o
 .debug_aranges
                0x00000000000009e8       0x20 Debug\UART.o
 .debug_aranges
                0x0000000000000a08       0x20 Debug\TV.o
 .debug_aranges
                0x0000000000000a28       0x20 Debug\NorFlash.o
 .debug_aranges
                0x0000000000000a48       0x20 Debug\User_IRQ.o
 .debug_aranges
                0x0000000000000a68       0x20 Debug\sys_isr.o
 .debug_aranges
                0x0000000000000a88       0x20 Debug\I2C.o
 .debug_aranges
                0x0000000000000aa8       0x20 Debug\ff.o
 .debug_aranges
                0x0000000000000ac8       0x20 Debug\diskio.o
 .debug_aranges
                0x0000000000000ae8       0x20 Debug\HS_Controller.o

.debug_pubnames
                0x0000000000000000     0x70ad
 *(.debug_pubnames)
 .debug_pubnames
                0x0000000000000000       0xd5 Debug\z_zone.o
 .debug_pubnames
                0x00000000000000d5      0x2cc Debug\wi_stuff.o
 .debug_pubnames
                0x00000000000003a1      0x127 Debug\w_wad.o
 .debug_pubnames
                0x00000000000004c8       0x29 Debug\w_main.o
 .debug_pubnames
                0x00000000000004f1       0x34 Debug\w_file_stdc.o
 .debug_pubnames
                0x0000000000000525       0x3c Debug\w_file.o
 .debug_pubnames
                0x0000000000000561       0x21 Debug\w_checksum.o
 .debug_pubnames
                0x0000000000000582      0x1fd Debug\v_video.o
 .debug_pubnames
                0x000000000000077f       0x69 Debug\tables.o
 .debug_pubnames
                0x00000000000007e8       0x2c Debug\statdump.o
 .debug_pubnames
                0x0000000000000814      0x241 Debug\st_stuff.o
 .debug_pubnames
                0x0000000000000a55       0xf2 Debug\st_lib.o
 .debug_pubnames
                0x0000000000000b47       0x28 Debug\sounds.o
 .debug_pubnames
                0x0000000000000b6f       0x6a Debug\sha1.o
 .debug_pubnames
                0x0000000000000bd9      0x12c Debug\s_sound.o
 .debug_pubnames
                0x0000000000000d05      0x25a Debug\r_things.o
 .debug_pubnames
                0x0000000000000f5f       0x53 Debug\r_sky.o
 .debug_pubnames
                0x0000000000000fb2      0x256 Debug\r_segs.o
 .debug_pubnames
                0x0000000000001208      0x1d4 Debug\r_plane.o
 .debug_pubnames
                0x00000000000013dc      0x368 Debug\r_main.o
 .debug_pubnames
                0x0000000000001744      0x2d6 Debug\r_draw.o
 .debug_pubnames
                0x0000000000001a1a      0x303 Debug\r_data.o
 .debug_pubnames
                0x0000000000001d1d      0x132 Debug\r_bsp.o
 .debug_pubnames
                0x0000000000001e4f       0x71 Debug\p_user.o
 .debug_pubnames
                0x0000000000001ec0       0x9c Debug\p_tick.o
 .debug_pubnames
                0x0000000000001f5c       0x22 Debug\p_telept.o
 .debug_pubnames
                0x0000000000001f7e       0xa9 Debug\p_switch.o
 .debug_pubnames
                0x0000000000002027      0x22d Debug\p_spec.o
 .debug_pubnames
                0x0000000000002254       0xcc Debug\p_sight.o
 .debug_pubnames
                0x0000000000002320      0x25c Debug\p_setup.o
 .debug_pubnames
                0x000000000000257c      0x191 Debug\p_saveg.o
 .debug_pubnames
                0x000000000000270d      0x20f Debug\p_pspr.o
 .debug_pubnames
                0x000000000000291c       0x92 Debug\p_plats.o
 .debug_pubnames
                0x00000000000029ae      0x1a4 Debug\p_mobj.o
 .debug_pubnames
                0x0000000000002b52      0x1df Debug\p_maputl.o
 .debug_pubnames
                0x0000000000002d31      0x33b Debug\p_map.o
 .debug_pubnames
                0x000000000000306c       0xf3 Debug\p_lights.o
 .debug_pubnames
                0x000000000000315f       0xc1 Debug\p_inter.o
 .debug_pubnames
                0x0000000000003220       0x54 Debug\p_floor.o
 .debug_pubnames
                0x0000000000003274      0x4e0 Debug\p_enemy.o
 .debug_pubnames
                0x0000000000003754       0x90 Debug\p_doors.o
 .debug_pubnames
                0x00000000000037e4       0xaf Debug\p_ceilng.o
 .debug_pubnames
                0x0000000000003893       0x1e Debug\mus2mid.o
 .debug_pubnames
                0x00000000000038b1       0x91 Debug\memio.o
 .debug_pubnames
                0x0000000000003942       0x59 Debug\m_random.o
 .debug_pubnames
                0x000000000000399b      0x16b Debug\m_misc.o
 .debug_pubnames
                0x0000000000003b06      0x717 Debug\m_menu.o
 .debug_pubnames
                0x000000000000421d       0x2c Debug\m_fixed.o
 .debug_pubnames
                0x0000000000004249      0x881 Debug\m_controls.o
 .debug_pubnames
                0x0000000000004aca      0x109 Debug\m_config.o
 .debug_pubnames
                0x0000000000004bd3       0x36 Debug\m_cheat.o
 .debug_pubnames
                0x0000000000004c09       0x30 Debug\m_bbox.o
 .debug_pubnames
                0x0000000000004c39       0x90 Debug\m_argv.o
 .debug_pubnames
                0x0000000000004cc9       0x37 Debug\info.o
 .debug_pubnames
                0x0000000000004d00      0x235 Debug\i_video.o
 .debug_pubnames
                0x0000000000004f35       0x69 Debug\i_timer.o
 .debug_pubnames
                0x0000000000004f9e       0xba Debug\i_system.o
 .debug_pubnames
                0x0000000000005058      0x201 Debug\i_sound.o
 .debug_pubnames
                0x0000000000005259      0x156 Debug\i_scale.o
 .debug_pubnames
                0x00000000000053af       0x6d Debug\i_joystick.o
 .debug_pubnames
                0x000000000000541c       0x4e Debug\i_input.o
 .debug_pubnames
                0x000000000000546a       0x1f Debug\i_endoom.o
 .debug_pubnames
                0x0000000000005489       0xd0 Debug\i_cdmus.o
 .debug_pubnames
                0x0000000000005559      0x124 Debug\hu_stuff.o
 .debug_pubnames
                0x000000000000567d      0x1e5 Debug\hu_lib.o
 .debug_pubnames
                0x0000000000005862       0x48 Debug\gusconf.o
 .debug_pubnames
                0x00000000000058aa      0x5da Debug\g_game.o
 .debug_pubnames
                0x0000000000005e84       0xe5 Debug\f_wipe.o
 .debug_pubnames
                0x0000000000005f69      0x18b Debug\f_finale.o
 .debug_pubnames
                0x00000000000060f4       0x4e Debug\dummy.o
 .debug_pubnames
                0x0000000000006142       0x34 Debug\dstrings.o
 .debug_pubnames
                0x0000000000006176       0x64 Debug\doomstat.o
 .debug_pubnames
                0x00000000000061da       0xea Debug\doomgeneric_hyperscan.o
 .debug_pubnames
                0x00000000000062c4       0x3d Debug\doomgeneric.o
 .debug_pubnames
                0x0000000000006301       0x46 Debug\d_net.o
 .debug_pubnames
                0x0000000000006347       0x93 Debug\d_mode.o
 .debug_pubnames
                0x00000000000063da      0x29b Debug\d_main.o
 .debug_pubnames
                0x0000000000006675       0xe7 Debug\d_loop.o
 .debug_pubnames
                0x000000000000675c       0xa2 Debug\d_iwad.o
 .debug_pubnames
                0x00000000000067fe       0x21 Debug\d_items.o
 .debug_pubnames
                0x000000000000681f       0x31 Debug\d_event.o
 .debug_pubnames
                0x0000000000006850      0x309 Debug\am_map.o
 .debug_pubnames
                0x0000000000006b59      0x114 Debug\libgloss.o
 .debug_pubnames
                0x0000000000006c6d       0x43 Debug\UART.o
 .debug_pubnames
                0x0000000000006cb0       0xc1 Debug\TV.o
 .debug_pubnames
                0x0000000000006d71       0xc3 Debug\NorFlash.o
 .debug_pubnames
                0x0000000000006e34       0x26 Debug\User_IRQ.o
 .debug_pubnames
                0x0000000000006e5a       0x35 Debug\sys_isr.o
 .debug_pubnames
                0x0000000000006e8f       0x3c Debug\I2C.o
 .debug_pubnames
                0x0000000000006ecb       0xdc Debug\ff.o
 .debug_pubnames
                0x0000000000006fa7       0xb7 Debug\diskio.o
 .debug_pubnames
                0x000000000000705e       0x4f Debug\HS_Controller.o

.debug_info     0x0000000000000000   0x106bd6
 *(.debug_info .gnu.linkonce.wi.*)
 .debug_info    0x0000000000000000       0xd7 Debug\hyperscan_startup.o
 .debug_info    0x00000000000000d7     0x10fd Debug\z_zone.o
 .debug_info    0x00000000000011d4     0x73ac Debug\wi_stuff.o
 .debug_info    0x0000000000008580      0xb18 Debug\w_wad.o
 .debug_info    0x0000000000009098      0x246 Debug\w_main.o
 .debug_info    0x00000000000092de      0xf00 Debug\w_file_stdc.o
 .debug_info    0x000000000000a1de      0x3ef Debug\w_file.o
 .debug_info    0x000000000000a5cd      0x592 Debug\w_checksum.o
 .debug_info    0x000000000000ab5f     0x115c Debug\v_video.o
 .debug_info    0x000000000000bcbb      0x2ec Debug\tables.o
 .debug_info    0x000000000000bfa7      0x441 Debug\statdump.o
 .debug_info    0x000000000000c3e8     0x6ed0 Debug\st_stuff.o
 .debug_info    0x00000000000132b8      0x8fc Debug\st_lib.o
 .debug_info    0x0000000000013bb4      0x323 Debug\sounds.o
 .debug_info    0x0000000000013ed7      0x4e1 Debug\sha1.o
 .debug_info    0x00000000000143b8     0x6872 Debug\s_sound.o
 .debug_info    0x000000000001ac2a     0x6bbe Debug\r_things.o
 .debug_info    0x00000000000217e8      0x1e9 Debug\r_sky.o
 .debug_info    0x00000000000219d1     0x6160 Debug\r_segs.o
 .debug_info    0x0000000000027b31     0x6204 Debug\r_plane.o
 .debug_info    0x000000000002dd35     0x6411 Debug\r_main.o
 .debug_info    0x0000000000034146      0xc76 Debug\r_draw.o
 .debug_info    0x0000000000034dbc     0x677c Debug\r_data.o
 .debug_info    0x000000000003b538     0x5fb5 Debug\r_bsp.o
 .debug_info    0x00000000000414ed     0x5af2 Debug\p_user.o
 .debug_info    0x0000000000046fdf     0x5773 Debug\p_tick.o
 .debug_info    0x000000000004c752     0x5f3a Debug\p_telept.o
 .debug_info    0x000000000005268c     0x61ea Debug\p_switch.o
 .debug_info    0x0000000000058876     0x78e3 Debug\p_spec.o
 .debug_info    0x0000000000060159     0x5c0d Debug\p_sight.o
 .debug_info    0x0000000000065d66     0x72da Debug\p_setup.o
 .debug_info    0x000000000006d040     0x7aa3 Debug\p_saveg.o
 .debug_info    0x0000000000074ae3     0x69a9 Debug\p_pspr.o
 .debug_info    0x000000000007b48c     0x6029 Debug\p_plats.o
 .debug_info    0x00000000000814b5     0x697d Debug\p_mobj.o
 .debug_info    0x0000000000087e32     0x63eb Debug\p_maputl.o
 .debug_info    0x000000000008e21d     0x7702 Debug\p_map.o
 .debug_info    0x000000000009591f     0x5b85 Debug\p_lights.o
 .debug_info    0x000000000009b4a4     0x65bc Debug\p_inter.o
 .debug_info    0x00000000000a1a60     0x6137 Debug\p_floor.o
 .debug_info    0x00000000000a7b97     0x78ce Debug\p_enemy.o
 .debug_info    0x00000000000af465     0x6c8f Debug\p_doors.o
 .debug_info    0x00000000000b60f4     0x5f73 Debug\p_ceilng.o
 .debug_info    0x00000000000bc067      0xa68 Debug\mus2mid.o
 .debug_info    0x00000000000bcacf      0x590 Debug\memio.o
 .debug_info    0x00000000000bd05f      0x19f Debug\m_random.o
 .debug_info    0x00000000000bd1fe     0x147b Debug\m_misc.o
 .debug_info    0x00000000000be679     0x8537 Debug\m_menu.o
 .debug_info    0x00000000000c6bb0      0x22a Debug\m_fixed.o
 .debug_info    0x00000000000c6dda      0xf08 Debug\m_controls.o
 .debug_info    0x00000000000c7ce2      0x9a7 Debug\m_config.o
 .debug_info    0x00000000000c8689      0x303 Debug\m_cheat.o
 .debug_info    0x00000000000c898c      0x18e Debug\m_bbox.o
 .debug_info    0x00000000000c8b1a      0x359 Debug\m_argv.o
 .debug_info    0x00000000000c8e73     0x426e Debug\info.o
 .debug_info    0x00000000000cd0e1      0x136 Debug\icon.o
 .debug_info    0x00000000000cd217      0xb3a Debug\i_video.o
 .debug_info    0x00000000000cdd51      0x2a7 Debug\i_timer.o
 .debug_info    0x00000000000cdff8     0x12f4 Debug\i_system.o
 .debug_info    0x00000000000cf2ec      0xd99 Debug\i_sound.o
 .debug_info    0x00000000000d0085     0x21b9 Debug\i_scale.o
 .debug_info    0x00000000000d223e      0x379 Debug\i_joystick.o
 .debug_info    0x00000000000d25b7      0x41c Debug\i_input.o
 .debug_info    0x00000000000d29d3      0x1d2 Debug\i_endoom.o
 .debug_info    0x00000000000d2ba5      0x320 Debug\i_cdmus.o
 .debug_info    0x00000000000d2ec5     0x6675 Debug\hu_stuff.o
 .debug_info    0x00000000000d953a      0xa7f Debug\hu_lib.o
 .debug_info    0x00000000000d9fb9     0x1040 Debug\gusconf.o
 .debug_info    0x00000000000daff9     0x8a51 Debug\g_game.o
 .debug_info    0x00000000000e3a4a      0x78d Debug\f_wipe.o
 .debug_info    0x00000000000e41d7     0x6d28 Debug\f_finale.o
 .debug_info    0x00000000000eaeff      0x209 Debug\dummy.o
 .debug_info    0x00000000000eb108      0x136 Debug\dstrings.o
 .debug_info    0x00000000000eb23e      0x3fe Debug\doomstat.o
 .debug_info    0x00000000000eb63c      0x87d Debug\doomgeneric_hyperscan.o
 .debug_info    0x00000000000ebeb9      0x22a Debug\doomgeneric.o
 .debug_info    0x00000000000ec0e3      0x17f Debug\doomdef.o
 .debug_info    0x00000000000ec262     0x5adf Debug\d_net.o
 .debug_info    0x00000000000f1d41      0x61e Debug\d_mode.o
 .debug_info    0x00000000000f235f     0x6d90 Debug\d_main.o
 .debug_info    0x00000000000f90ef      0xda8 Debug\d_loop.o
 .debug_info    0x00000000000f9e97      0x863 Debug\d_iwad.o
 .debug_info    0x00000000000fa6fa      0x291 Debug\d_items.o
 .debug_info    0x00000000000fa98b      0x2f7 Debug\d_event.o
 .debug_info    0x00000000000fac82     0x75b8 Debug\am_map.o
 .debug_info    0x000000000010223a     0x17e4 Debug\libgloss.o
 .debug_info    0x0000000000103a1e      0x190 Debug\UART.o
 .debug_info    0x0000000000103bae      0x4a0 Debug\TV.o
 .debug_info    0x000000000010404e      0x2bb Debug\NorFlash.o
 .debug_info    0x0000000000104309       0xf0 Debug\User_IRQ.o
 .debug_info    0x00000000001043f9      0x1f3 Debug\sys_isr.o
 .debug_info    0x00000000001045ec      0x182 Debug\I2C.o
 .debug_info    0x000000000010476e     0x1d1f Debug\ff.o
 .debug_info    0x000000000010648d      0x44e Debug\diskio.o
 .debug_info    0x00000000001068db      0x2fb Debug\HS_Controller.o

.debug_abbrev   0x0000000000000000     0x8dc6
 *(.debug_abbrev)
 .debug_abbrev  0x0000000000000000       0x12 Debug\hyperscan_startup.o
 .debug_abbrev  0x0000000000000012      0x23c Debug\z_zone.o
 .debug_abbrev  0x000000000000024e      0x1f0 Debug\wi_stuff.o
 .debug_abbrev  0x000000000000043e      0x213 Debug\w_wad.o
 .debug_abbrev  0x0000000000000651       0x96 Debug\w_main.o
 .debug_abbrev  0x00000000000006e7      0x1dd Debug\w_file_stdc.o
 .debug_abbrev  0x00000000000008c4       0xfc Debug\w_file.o
 .debug_abbrev  0x00000000000009c0      0x12d Debug\w_checksum.o
 .debug_abbrev  0x0000000000000aed      0x1ba Debug\v_video.o
 .debug_abbrev  0x0000000000000ca7       0xb9 Debug\tables.o
 .debug_abbrev  0x0000000000000d60       0xd3 Debug\statdump.o
 .debug_abbrev  0x0000000000000e33      0x1fd Debug\st_stuff.o
 .debug_abbrev  0x0000000000001030      0x141 Debug\st_lib.o
 .debug_abbrev  0x0000000000001171       0x93 Debug\sounds.o
 .debug_abbrev  0x0000000000001204      0x10b Debug\sha1.o
 .debug_abbrev  0x000000000000130f      0x286 Debug\s_sound.o
 .debug_abbrev  0x0000000000001595      0x271 Debug\r_things.o
 .debug_abbrev  0x0000000000001806       0x4e Debug\r_sky.o
 .debug_abbrev  0x0000000000001854      0x241 Debug\r_segs.o
 .debug_abbrev  0x0000000000001a95      0x286 Debug\r_plane.o
 .debug_abbrev  0x0000000000001d1b      0x26c Debug\r_main.o
 .debug_abbrev  0x0000000000001f87      0x173 Debug\r_draw.o
 .debug_abbrev  0x00000000000020fa      0x258 Debug\r_data.o
 .debug_abbrev  0x0000000000002352      0x25d Debug\r_bsp.o
 .debug_abbrev  0x00000000000025af      0x1c7 Debug\p_user.o
 .debug_abbrev  0x0000000000002776      0x19d Debug\p_tick.o
 .debug_abbrev  0x0000000000002913      0x198 Debug\p_telept.o
 .debug_abbrev  0x0000000000002aab      0x1b0 Debug\p_switch.o
 .debug_abbrev  0x0000000000002c5b      0x2e7 Debug\p_spec.o
 .debug_abbrev  0x0000000000002f42      0x1e3 Debug\p_sight.o
 .debug_abbrev  0x0000000000003125      0x2b4 Debug\p_setup.o
 .debug_abbrev  0x00000000000033d9      0x30c Debug\p_saveg.o
 .debug_abbrev  0x00000000000036e5      0x259 Debug\p_pspr.o
 .debug_abbrev  0x000000000000393e      0x1d6 Debug\p_plats.o
 .debug_abbrev  0x0000000000003b14      0x260 Debug\p_mobj.o
 .debug_abbrev  0x0000000000003d74      0x25c Debug\p_maputl.o
 .debug_abbrev  0x0000000000003fd0      0x2ea Debug\p_map.o
 .debug_abbrev  0x00000000000042ba      0x1e8 Debug\p_lights.o
 .debug_abbrev  0x00000000000044a2      0x226 Debug\p_inter.o
 .debug_abbrev  0x00000000000046c8      0x1ee Debug\p_floor.o
 .debug_abbrev  0x00000000000048b6      0x29d Debug\p_enemy.o
 .debug_abbrev  0x0000000000004b53      0x24e Debug\p_doors.o
 .debug_abbrev  0x0000000000004da1      0x1ef Debug\p_ceilng.o
 .debug_abbrev  0x0000000000004f90      0x151 Debug\mus2mid.o
 .debug_abbrev  0x00000000000050e1      0x10a Debug\memio.o
 .debug_abbrev  0x00000000000051eb       0x8d Debug\m_random.o
 .debug_abbrev  0x0000000000005278      0x248 Debug\m_misc.o
 .debug_abbrev  0x00000000000054c0      0x286 Debug\m_menu.o
 .debug_abbrev  0x0000000000005746       0x8c Debug\m_fixed.o
 .debug_abbrev  0x00000000000057d2       0xaa Debug\m_controls.o
 .debug_abbrev  0x000000000000587c      0x17d Debug\m_config.o
 .debug_abbrev  0x00000000000059f9       0xbf Debug\m_cheat.o
 .debug_abbrev  0x0000000000005ab8       0x86 Debug\m_bbox.o
 .debug_abbrev  0x0000000000005b3e       0xc8 Debug\m_argv.o
 .debug_abbrev  0x0000000000005c06       0xf7 Debug\info.o
 .debug_abbrev  0x0000000000005cfd       0x49 Debug\icon.o
 .debug_abbrev  0x0000000000005d46      0x19d Debug\i_video.o
 .debug_abbrev  0x0000000000005ee3       0xaf Debug\i_timer.o
 .debug_abbrev  0x0000000000005f92      0x2b2 Debug\i_system.o
 .debug_abbrev  0x0000000000006244      0x234 Debug\i_sound.o
 .debug_abbrev  0x0000000000006478      0x270 Debug\i_scale.o
 .debug_abbrev  0x00000000000066e8       0xa2 Debug\i_joystick.o
 .debug_abbrev  0x000000000000678a      0x125 Debug\i_input.o
 .debug_abbrev  0x00000000000068af       0x62 Debug\i_endoom.o
 .debug_abbrev  0x0000000000006911       0x8d Debug\i_cdmus.o
 .debug_abbrev  0x000000000000699e      0x1d2 Debug\hu_stuff.o
 .debug_abbrev  0x0000000000006b70      0x184 Debug\hu_lib.o
 .debug_abbrev  0x0000000000006cf4      0x20f Debug\gusconf.o
 .debug_abbrev  0x0000000000006f03      0x32d Debug\g_game.o
 .debug_abbrev  0x0000000000007230      0x12c Debug\f_wipe.o
 .debug_abbrev  0x000000000000735c      0x271 Debug\f_finale.o
 .debug_abbrev  0x00000000000075cd       0x71 Debug\dummy.o
 .debug_abbrev  0x000000000000763e       0x54 Debug\dstrings.o
 .debug_abbrev  0x0000000000007692       0x65 Debug\doomstat.o
 .debug_abbrev  0x00000000000076f7      0x1fb Debug\doomgeneric_hyperscan.o
 .debug_abbrev  0x00000000000078f2       0x86 Debug\doomgeneric.o
 .debug_abbrev  0x0000000000007978       0x28 Debug\doomdef.o
 .debug_abbrev  0x00000000000079a0      0x1d5 Debug\d_net.o
 .debug_abbrev  0x0000000000007b75       0xe6 Debug\d_mode.o
 .debug_abbrev  0x0000000000007c5b      0x298 Debug\d_main.o
 .debug_abbrev  0x0000000000007ef3      0x1d3 Debug\d_loop.o
 .debug_abbrev  0x00000000000080c6      0x15b Debug\d_iwad.o
 .debug_abbrev  0x0000000000008221       0x8a Debug\d_items.o
 .debug_abbrev  0x00000000000082ab       0xd0 Debug\d_event.o
 .debug_abbrev  0x000000000000837b      0x27f Debug\am_map.o
 .debug_abbrev  0x00000000000085fa      0x210 Debug\libgloss.o
 .debug_abbrev  0x000000000000880a       0x69 Debug\UART.o
 .debug_abbrev  0x0000000000008873       0xa8 Debug\TV.o
 .debug_abbrev  0x000000000000891b       0x97 Debug\NorFlash.o
 .debug_abbrev  0x00000000000089b2       0x27 Debug\User_IRQ.o
 .debug_abbrev  0x00000000000089d9       0x91 Debug\sys_isr.o
 .debug_abbrev  0x0000000000008a6a       0x80 Debug\I2C.o
 .debug_abbrev  0x0000000000008aea      0x164 Debug\ff.o
 .debug_abbrev  0x0000000000008c4e       0xa9 Debug\diskio.o
 .debug_abbrev  0x0000000000008cf7       0xcf Debug\HS_Controller.o

.debug_line     0x0000000000000000     0xfbea
 *(.debug_line)
 .debug_line    0x0000000000000000      0x135 Debug\hyperscan_startup.o
 .debug_line    0x0000000000000135      0x302 Debug\z_zone.o
 .debug_line    0x0000000000000437      0x647 Debug\wi_stuff.o
 .debug_line    0x0000000000000a7e      0x2f1 Debug\w_wad.o
 .debug_line    0x0000000000000d6f      0x117 Debug\w_main.o
 .debug_line    0x0000000000000e86      0x257 Debug\w_file_stdc.o
 .debug_line    0x00000000000010dd      0x171 Debug\w_file.o
 .debug_line    0x000000000000124e      0x195 Debug\w_checksum.o
 .debug_line    0x00000000000013e3      0x386 Debug\v_video.o
 .debug_line    0x0000000000001769      0x120 Debug\tables.o
 .debug_line    0x0000000000001889      0x110 Debug\statdump.o
 .debug_line    0x0000000000001999      0x521 Debug\st_stuff.o
 .debug_line    0x0000000000001eba      0x1d4 Debug\st_lib.o
 .debug_line    0x000000000000208e       0xe3 Debug\sounds.o
 .debug_line    0x0000000000002171      0x2df Debug\sha1.o
 .debug_line    0x0000000000002450      0x302 Debug\s_sound.o
 .debug_line    0x0000000000002752      0x4f0 Debug\r_things.o
 .debug_line    0x0000000000002c42       0x8f Debug\r_sky.o
 .debug_line    0x0000000000002cd1      0x43b Debug\r_segs.o
 .debug_line    0x000000000000310c      0x308 Debug\r_plane.o
 .debug_line    0x0000000000003414      0x39f Debug\r_main.o
 .debug_line    0x00000000000037b3      0x31e Debug\r_draw.o
 .debug_line    0x0000000000003ad1      0x47c Debug\r_data.o
 .debug_line    0x0000000000003f4d      0x2d1 Debug\r_bsp.o
 .debug_line    0x000000000000421e      0x29a Debug\p_user.o
 .debug_line    0x00000000000044b8      0x1d6 Debug\p_tick.o
 .debug_line    0x000000000000468e      0x20c Debug\p_telept.o
 .debug_line    0x000000000000489a      0x329 Debug\p_switch.o
 .debug_line    0x0000000000004bc3      0x57e Debug\p_spec.o
 .debug_line    0x0000000000005141      0x277 Debug\p_sight.o
 .debug_line    0x00000000000053b8      0x4f7 Debug\p_setup.o
 .debug_line    0x00000000000058af      0x6dc Debug\p_saveg.o
 .debug_line    0x0000000000005f8b      0x3d0 Debug\p_pspr.o
 .debug_line    0x000000000000635b      0x29b Debug\p_plats.o
 .debug_line    0x00000000000065f6      0x487 Debug\p_mobj.o
 .debug_line    0x0000000000006a7d      0x3f2 Debug\p_maputl.o
 .debug_line    0x0000000000006e6f      0x5e3 Debug\p_map.o
 .debug_line    0x0000000000007452      0x282 Debug\p_lights.o
 .debug_line    0x00000000000076d4      0x400 Debug\p_inter.o
 .debug_line    0x0000000000007ad4      0x325 Debug\p_floor.o
 .debug_line    0x0000000000007df9      0x6d1 Debug\p_enemy.o
 .debug_line    0x00000000000084ca      0x396 Debug\p_doors.o
 .debug_line    0x0000000000008860      0x278 Debug\p_ceilng.o
 .debug_line    0x0000000000008ad8      0x253 Debug\mus2mid.o
 .debug_line    0x0000000000008d2b      0x1a9 Debug\memio.o
 .debug_line    0x0000000000008ed4       0xa0 Debug\m_random.o
 .debug_line    0x0000000000008f74      0x32b Debug\m_misc.o
 .debug_line    0x000000000000929f      0x772 Debug\m_menu.o
 .debug_line    0x0000000000009a11      0x111 Debug\m_fixed.o
 .debug_line    0x0000000000009b22      0x198 Debug\m_controls.o
 .debug_line    0x0000000000009cba      0x1bf Debug\m_config.o
 .debug_line    0x0000000000009e79      0x16e Debug\m_cheat.o
 .debug_line    0x0000000000009fe7      0x10f Debug\m_bbox.o
 .debug_line    0x000000000000a0f6      0x11a Debug\m_argv.o
 .debug_line    0x000000000000a210       0xeb Debug\info.o
 .debug_line    0x000000000000a2fb       0x7d Debug\icon.o
 .debug_line    0x000000000000a378      0x22d Debug\i_video.o
 .debug_line    0x000000000000a5a5      0x10a Debug\i_timer.o
 .debug_line    0x000000000000a6af      0x2d0 Debug\i_system.o
 .debug_line    0x000000000000a97f      0x1bc Debug\i_sound.o
 .debug_line    0x000000000000ab3b      0x61b Debug\i_scale.o
 .debug_line    0x000000000000b156       0xbd Debug\i_joystick.o
 .debug_line    0x000000000000b213      0x126 Debug\i_input.o
 .debug_line    0x000000000000b339      0x104 Debug\i_endoom.o
 .debug_line    0x000000000000b43d       0xb9 Debug\i_cdmus.o
 .debug_line    0x000000000000b4f6      0x2ff Debug\hu_stuff.o
 .debug_line    0x000000000000b7f5      0x27e Debug\hu_lib.o
 .debug_line    0x000000000000ba73      0x2bf Debug\gusconf.o
 .debug_line    0x000000000000bd32      0x8d8 Debug\g_game.o
 .debug_line    0x000000000000c60a      0x1e1 Debug\f_wipe.o
 .debug_line    0x000000000000c7eb      0x44d Debug\f_finale.o
 .debug_line    0x000000000000cc38       0xf3 Debug\dummy.o
 .debug_line    0x000000000000cd2b       0x81 Debug\dstrings.o
 .debug_line    0x000000000000cdac       0xf2 Debug\doomstat.o
 .debug_line    0x000000000000ce9e      0x2e5 Debug\doomgeneric_hyperscan.o
 .debug_line    0x000000000000d183      0x10a Debug\doomgeneric.o
 .debug_line    0x000000000000d28d       0x1d Debug\doomdef.o
 .debug_line    0x000000000000d2aa      0x25a Debug\d_net.o
 .debug_line    0x000000000000d504      0x153 Debug\d_mode.o
 .debug_line    0x000000000000d657      0x6bd Debug\d_main.o
 .debug_line    0x000000000000dd14      0x26d Debug\d_loop.o
 .debug_line    0x000000000000df81      0x236 Debug\d_iwad.o
 .debug_line    0x000000000000e1b7       0xf1 Debug\d_items.o
 .debug_line    0x000000000000e2a8      0x103 Debug\d_event.o
 .debug_line    0x000000000000e3ab      0x61d Debug\am_map.o
 .debug_line    0x000000000000e9c8      0x268 Debug\libgloss.o
 .debug_line    0x000000000000ec30       0xa1 Debug\UART.o
 .debug_line    0x000000000000ecd1      0x176 Debug\TV.o
 .debug_line    0x000000000000ee47       0xfc Debug\NorFlash.o
 .debug_line    0x000000000000ef43       0x95 Debug\User_IRQ.o
 .debug_line    0x000000000000efd8       0x9a Debug\sys_isr.o
 .debug_line    0x000000000000f072       0xad Debug\I2C.o
 .debug_line    0x000000000000f11f      0x7de Debug\ff.o
 .debug_line    0x000000000000f8fd      0x1a2 Debug\diskio.o
 .debug_line    0x000000000000fa9f      0x14b Debug\HS_Controller.o

.debug_frame    0x0000000000000000     0x8ce8
 *(.debug_frame)
 .debug_frame   0x0000000000000000      0x180 Debug\z_zone.o
 .debug_frame   0x0000000000000180      0x4d0 Debug\wi_stuff.o
 .debug_frame   0x0000000000000650      0x1d0 Debug\w_wad.o
 .debug_frame   0x0000000000000820       0x30 Debug\w_main.o
 .debug_frame   0x0000000000000850       0x70 Debug\w_file_stdc.o
 .debug_frame   0x00000000000008c0       0x70 Debug\w_file.o
 .debug_frame   0x0000000000000930       0x70 Debug\w_checksum.o
 .debug_frame   0x00000000000009a0      0x2ec Debug\v_video.o
 .debug_frame   0x0000000000000c8c       0x2c Debug\tables.o
 .debug_frame   0x0000000000000cb8       0x48 Debug\statdump.o
 .debug_frame   0x0000000000000d00      0x2ec Debug\st_stuff.o
 .debug_frame   0x0000000000000fec      0x138 Debug\st_lib.o
 .debug_frame   0x0000000000001124       0xcc Debug\sha1.o
 .debug_frame   0x00000000000011f0      0x240 Debug\s_sound.o
 .debug_frame   0x0000000000001430      0x1d0 Debug\r_things.o
 .debug_frame   0x0000000000001600       0x28 Debug\r_sky.o
 .debug_frame   0x0000000000001628       0x88 Debug\r_segs.o
 .debug_frame   0x00000000000016b0       0xf0 Debug\r_plane.o
 .debug_frame   0x00000000000017a0      0x214 Debug\r_main.o
 .debug_frame   0x00000000000019b4      0x1b8 Debug\r_draw.o
 .debug_frame   0x0000000000001b6c      0x1d8 Debug\r_data.o
 .debug_frame   0x0000000000001d44      0x100 Debug\r_bsp.o
 .debug_frame   0x0000000000001e44       0xc4 Debug\p_user.o
 .debug_frame   0x0000000000001f08       0xb0 Debug\p_tick.o
 .debug_frame   0x0000000000001fb8       0x30 Debug\p_telept.o
 .debug_frame   0x0000000000001fe8       0x98 Debug\p_switch.o
 .debug_frame   0x0000000000002080      0x25c Debug\p_spec.o
 .debug_frame   0x00000000000022dc       0xb4 Debug\p_sight.o
 .debug_frame   0x0000000000002390      0x1f0 Debug\p_setup.o
 .debug_frame   0x0000000000002580      0x6a0 Debug\p_saveg.o
 .debug_frame   0x0000000000002c20      0x3fc Debug\p_pspr.o
 .debug_frame   0x000000000000301c       0xc8 Debug\p_plats.o
 .debug_frame   0x00000000000030e4      0x250 Debug\p_mobj.o
 .debug_frame   0x0000000000003334      0x228 Debug\p_maputl.o
 .debug_frame   0x000000000000355c      0x2c0 Debug\p_map.o
 .debug_frame   0x000000000000381c      0x164 Debug\p_lights.o
 .debug_frame   0x0000000000003980      0x130 Debug\p_inter.o
 .debug_frame   0x0000000000003ab0       0x90 Debug\p_floor.o
 .debug_frame   0x0000000000003b40      0x87c Debug\p_enemy.o
 .debug_frame   0x00000000000043bc       0xd0 Debug\p_doors.o
 .debug_frame   0x000000000000448c       0xc4 Debug\p_ceilng.o
 .debug_frame   0x0000000000004550      0x194 Debug\mus2mid.o
 .debug_frame   0x00000000000046e4      0x100 Debug\memio.o
 .debug_frame   0x00000000000047e4       0x58 Debug\m_random.o
 .debug_frame   0x000000000000483c      0x27c Debug\m_misc.o
 .debug_frame   0x0000000000004ab8      0x718 Debug\m_menu.o
 .debug_frame   0x00000000000051d0       0x48 Debug\m_fixed.o
 .debug_frame   0x0000000000005218      0x128 Debug\m_controls.o
 .debug_frame   0x0000000000005340      0x240 Debug\m_config.o
 .debug_frame   0x0000000000005580       0x58 Debug\m_cheat.o
 .debug_frame   0x00000000000055d8       0x40 Debug\m_bbox.o
 .debug_frame   0x0000000000005618       0xc8 Debug\m_argv.o
 .debug_frame   0x00000000000056e0      0x234 Debug\i_video.o
 .debug_frame   0x0000000000005914       0xc0 Debug\i_timer.o
 .debug_frame   0x00000000000059d4      0x1c4 Debug\i_system.o
 .debug_frame   0x0000000000005b98      0x2f4 Debug\i_sound.o
 .debug_frame   0x0000000000005e8c      0x408 Debug\i_scale.o
 .debug_frame   0x0000000000006294       0x78 Debug\i_joystick.o
 .debug_frame   0x000000000000630c       0x9c Debug\i_input.o
 .debug_frame   0x00000000000063a8       0x28 Debug\i_endoom.o
 .debug_frame   0x00000000000063d0       0xe8 Debug\i_cdmus.o
 .debug_frame   0x00000000000064b8      0x124 Debug\hu_stuff.o
 .debug_frame   0x00000000000065dc      0x278 Debug\hu_lib.o
 .debug_frame   0x0000000000006854      0x120 Debug\gusconf.o
 .debug_frame   0x0000000000006974      0x4d8 Debug\g_game.o
 .debug_frame   0x0000000000006e4c      0x148 Debug\f_wipe.o
 .debug_frame   0x0000000000006f94      0x1ac Debug\f_finale.o
 .debug_frame   0x0000000000007140       0x28 Debug\dummy.o
 .debug_frame   0x0000000000007168      0x1bc Debug\doomgeneric_hyperscan.o
 .debug_frame   0x0000000000007324       0x30 Debug\doomgeneric.o
 .debug_frame   0x0000000000007354       0xf4 Debug\d_net.o
 .debug_frame   0x0000000000007448       0xbc Debug\d_mode.o
 .debug_frame   0x0000000000007504      0x2c0 Debug\d_main.o
 .debug_frame   0x00000000000077c4      0x1e4 Debug\d_loop.o
 .debug_frame   0x00000000000079a8      0x19c Debug\d_iwad.o
 .debug_frame   0x0000000000007b44       0x4c Debug\d_event.o
 .debug_frame   0x0000000000007b90      0x44c Debug\am_map.o
 .debug_frame   0x0000000000007fdc      0x224 Debug\libgloss.o
 .debug_frame   0x0000000000008200       0x5c Debug\UART.o
 .debug_frame   0x000000000000825c      0x140 Debug\TV.o
 .debug_frame   0x000000000000839c      0x100 Debug\NorFlash.o
 .debug_frame   0x000000000000849c       0x28 Debug\User_IRQ.o
 .debug_frame   0x00000000000084c4       0x48 Debug\sys_isr.o
 .debug_frame   0x000000000000850c       0x60 Debug\I2C.o
 .debug_frame   0x000000000000856c      0x600 Debug\ff.o
 .debug_frame   0x0000000000008b6c      0x120 Debug\diskio.o
 .debug_frame   0x0000000000008c8c       0x5c Debug\HS_Controller.o

.debug_str      0x0000000000000000     0x102e
 *(.debug_str)
 .debug_str     0x0000000000000000       0x14 Debug\z_zone.o
 .debug_str     0x0000000000000014       0x65 Debug\wi_stuff.o
 .debug_str     0x0000000000000079       0x2b Debug\w_wad.o
 .debug_str     0x00000000000000a4       0x17 Debug\w_file_stdc.o
 .debug_str     0x00000000000000bb        0xd Debug\w_checksum.o
 .debug_str     0x00000000000000c8       0x34 Debug\v_video.o
 .debug_str     0x00000000000000fc       0x44 Debug\st_stuff.o
 .debug_str     0x0000000000000140        0x8 Debug\st_lib.o
 .debug_str     0x0000000000000148       0x5d Debug\s_sound.o
 .debug_str     0x00000000000001a5       0xa4 Debug\r_things.o
 .debug_str     0x0000000000000249       0xb5 Debug\r_segs.o
 .debug_str     0x00000000000002fe       0x77 Debug\r_plane.o
 .debug_str     0x0000000000000375       0x7f Debug\r_main.o
 .debug_str     0x00000000000003f4       0x2c Debug\r_draw.o
 .debug_str     0x0000000000000420       0x6d Debug\r_data.o
 .debug_str     0x000000000000048d       0x4d Debug\r_bsp.o
 .debug_str     0x00000000000004da       0x31 Debug\p_user.o
 .debug_str     0x000000000000050b       0x2c Debug\p_tick.o
 .debug_str     0x0000000000000537       0x2c Debug\p_telept.o
 .debug_str     0x0000000000000563       0x2d Debug\p_switch.o
 .debug_str     0x0000000000000590       0xb8 Debug\p_spec.o
 .debug_str     0x0000000000000648       0x3b Debug\p_sight.o
 .debug_str     0x0000000000000683      0x10f Debug\p_setup.o
 .debug_str     0x0000000000000792       0x91 Debug\p_saveg.o
 .debug_str     0x0000000000000823       0x47 Debug\p_pspr.o
 .debug_str     0x000000000000086a       0x33 Debug\p_plats.o
 .debug_str     0x000000000000089d       0x30 Debug\p_mobj.o
 .debug_str     0x00000000000008cd       0x39 Debug\p_maputl.o
 .debug_str     0x0000000000000906       0x81 Debug\p_map.o
 .debug_str     0x0000000000000987       0x54 Debug\p_lights.o
 .debug_str     0x00000000000009db       0x44 Debug\p_inter.o
 .debug_str     0x0000000000000a1f       0x4a Debug\p_floor.o
 .debug_str     0x0000000000000a69       0x67 Debug\p_enemy.o
 .debug_str     0x0000000000000ad0       0x46 Debug\p_doors.o
 .debug_str     0x0000000000000b16       0x2c Debug\p_ceilng.o
 .debug_str     0x0000000000000b42       0x1b Debug\mus2mid.o
 .debug_str     0x0000000000000b5d       0x17 Debug\memio.o
 .debug_str     0x0000000000000b74       0x55 Debug\m_misc.o
 .debug_str     0x0000000000000bc9       0x4f Debug\m_menu.o
 .debug_str     0x0000000000000c18       0x22 Debug\m_config.o
 .debug_str     0x0000000000000c3a        0xa Debug\i_video.o
 .debug_str     0x0000000000000c44       0x27 Debug\i_system.o
 .debug_str     0x0000000000000c6b       0x40 Debug\i_sound.o
 .debug_str     0x0000000000000cab       0x63 Debug\i_scale.o
 .debug_str     0x0000000000000d0e       0x2b Debug\hu_stuff.o
 .debug_str     0x0000000000000d39        0xa Debug\hu_lib.o
 .debug_str     0x0000000000000d43       0x20 Debug\gusconf.o
 .debug_str     0x0000000000000d63       0xcd Debug\g_game.o
 .debug_str     0x0000000000000e30       0x13 Debug\f_wipe.o
 .debug_str     0x0000000000000e43       0x2b Debug\f_finale.o
 .debug_str     0x0000000000000e6e        0x9 Debug\doomgeneric_hyperscan.o
 .debug_str     0x0000000000000e77       0x7e Debug\d_net.o
 .debug_str     0x0000000000000ef5       0x10 Debug\d_mode.o
 .debug_str     0x0000000000000f05       0x44 Debug\d_main.o
 .debug_str     0x0000000000000f49       0x22 Debug\d_loop.o
 .debug_str     0x0000000000000f6b       0x18 Debug\d_iwad.o
 .debug_str     0x0000000000000f83       0x52 Debug\am_map.o
 .debug_str     0x0000000000000fd5       0x26 Debug\libgloss.o
 .debug_str     0x0000000000000ffb       0x1b Debug\TV.o
 .debug_str     0x0000000000001016        0xf Debug\ff.o
 .debug_str     0x0000000000001025        0x9 Debug\diskio.o

.debug_loc      0x0000000000000000    0x1150d
 *(.debug_loc)
 .debug_loc     0x0000000000000000      0x2f4 Debug\z_zone.o
 .debug_loc     0x00000000000002f4      0x9c6 Debug\wi_stuff.o
 .debug_loc     0x0000000000000cba      0x3a0 Debug\w_wad.o
 .debug_loc     0x000000000000105a       0x43 Debug\w_main.o
 .debug_loc     0x000000000000109d       0xc9 Debug\w_file_stdc.o
 .debug_loc     0x0000000000001166       0xc9 Debug\w_file.o
 .debug_loc     0x000000000000122f       0xcb Debug\w_checksum.o
 .debug_loc     0x00000000000012fa      0x5d4 Debug\v_video.o
 .debug_loc     0x00000000000018ce       0x37 Debug\tables.o
 .debug_loc     0x0000000000001905       0x6e Debug\statdump.o
 .debug_loc     0x0000000000001973      0x5fb Debug\st_stuff.o
 .debug_loc     0x0000000000001f6e      0x258 Debug\st_lib.o
 .debug_loc     0x00000000000021c6      0x17c Debug\sha1.o
 .debug_loc     0x0000000000002342      0x48d Debug\s_sound.o
 .debug_loc     0x00000000000027cf      0x39a Debug\r_things.o
 .debug_loc     0x0000000000002b69       0x2b Debug\r_sky.o
 .debug_loc     0x0000000000002b94       0xed Debug\r_segs.o
 .debug_loc     0x0000000000002c81      0x1c9 Debug\r_plane.o
 .debug_loc     0x0000000000002e4a      0x413 Debug\r_main.o
 .debug_loc     0x000000000000325d      0x373 Debug\r_draw.o
 .debug_loc     0x00000000000035d0      0x3ba Debug\r_data.o
 .debug_loc     0x000000000000398a      0x1ea Debug\r_bsp.o
 .debug_loc     0x0000000000003b74      0x173 Debug\p_user.o
 .debug_loc     0x0000000000003ce7      0x132 Debug\p_tick.o
 .debug_loc     0x0000000000003e19       0x45 Debug\p_telept.o
 .debug_loc     0x0000000000003e5e      0x118 Debug\p_switch.o
 .debug_loc     0x0000000000003f76      0x4a7 Debug\p_spec.o
 .debug_loc     0x000000000000441d      0x151 Debug\p_sight.o
 .debug_loc     0x000000000000456e      0x3ef Debug\p_setup.o
 .debug_loc     0x000000000000495d      0xdb6 Debug\p_saveg.o
 .debug_loc     0x0000000000005713      0x805 Debug\p_pspr.o
 .debug_loc     0x0000000000005f18      0x17a Debug\p_plats.o
 .debug_loc     0x0000000000006092      0x497 Debug\p_mobj.o
 .debug_loc     0x0000000000006529      0x447 Debug\p_maputl.o
 .debug_loc     0x0000000000006970      0x599 Debug\p_map.o
 .debug_loc     0x0000000000006f09      0x2bd Debug\p_lights.o
 .debug_loc     0x00000000000071c6      0x243 Debug\p_inter.o
 .debug_loc     0x0000000000007409      0x10e Debug\p_floor.o
 .debug_loc     0x0000000000007517     0x1173 Debug\p_enemy.o
 .debug_loc     0x000000000000868a      0x194 Debug\p_doors.o
 .debug_loc     0x000000000000881e      0x16e Debug\p_ceilng.o
 .debug_loc     0x000000000000898c      0x326 Debug\mus2mid.o
 .debug_loc     0x0000000000008cb2      0x1e8 Debug\memio.o
 .debug_loc     0x0000000000008e9a       0x81 Debug\m_random.o
 .debug_loc     0x0000000000008f1b      0x505 Debug\m_misc.o
 .debug_loc     0x0000000000009420      0xe66 Debug\m_menu.o
 .debug_loc     0x000000000000a286       0x6e Debug\m_fixed.o
 .debug_loc     0x000000000000a2f4      0x243 Debug\m_controls.o
 .debug_loc     0x000000000000a537      0x47a Debug\m_config.o
 .debug_loc     0x000000000000a9b1       0x92 Debug\m_cheat.o
 .debug_loc     0x000000000000aa43       0x56 Debug\m_bbox.o
 .debug_loc     0x000000000000aa99      0x17a Debug\m_argv.o
 .debug_loc     0x000000000000ac13      0x428 Debug\i_video.o
 .debug_loc     0x000000000000b03b      0x162 Debug\i_timer.o
 .debug_loc     0x000000000000b19d      0x37c Debug\i_system.o
 .debug_loc     0x000000000000b519      0x5f4 Debug\i_sound.o
 .debug_loc     0x000000000000bb0d      0x804 Debug\i_scale.o
 .debug_loc     0x000000000000c311       0xc4 Debug\i_joystick.o
 .debug_loc     0x000000000000c3d5      0x113 Debug\i_input.o
 .debug_loc     0x000000000000c4e8       0x2b Debug\i_endoom.o
 .debug_loc     0x000000000000c513      0x183 Debug\i_cdmus.o
 .debug_loc     0x000000000000c696      0x22b Debug\hu_stuff.o
 .debug_loc     0x000000000000c8c1      0x4f4 Debug\hu_lib.o
 .debug_loc     0x000000000000cdb5      0x226 Debug\gusconf.o
 .debug_loc     0x000000000000cfdb      0x9cd Debug\g_game.o
 .debug_loc     0x000000000000d9a8      0x27a Debug\f_wipe.o
 .debug_loc     0x000000000000dc22      0x35d Debug\f_finale.o
 .debug_loc     0x000000000000df7f       0x2b Debug\dummy.o
 .debug_loc     0x000000000000dfaa      0x351 Debug\doomgeneric_hyperscan.o
 .debug_loc     0x000000000000e2fb       0x43 Debug\doomgeneric.o
 .debug_loc     0x000000000000e33e      0x1d9 Debug\d_net.o
 .debug_loc     0x000000000000e517      0x156 Debug\d_mode.o
 .debug_loc     0x000000000000e66d      0x583 Debug\d_main.o
 .debug_loc     0x000000000000ebf0      0x3ac Debug\d_loop.o
 .debug_loc     0x000000000000ef9c      0x32b Debug\d_iwad.o
 .debug_loc     0x000000000000f2c7       0x7a Debug\d_event.o
 .debug_loc     0x000000000000f341      0x8aa Debug\am_map.o
 .debug_loc     0x000000000000fbeb      0x415 Debug\libgloss.o
 .debug_loc     0x0000000000010000       0x8d Debug\UART.o
 .debug_loc     0x000000000001008d      0x251 Debug\TV.o
 .debug_loc     0x00000000000102de      0x1e8 Debug\NorFlash.o
 .debug_loc     0x00000000000104c6       0x2b Debug\User_IRQ.o
 .debug_loc     0x00000000000104f1       0x6e Debug\sys_isr.o
 .debug_loc     0x000000000001055f       0x99 Debug\I2C.o
 .debug_loc     0x00000000000105f8      0xc4c Debug\ff.o
 .debug_loc     0x0000000000011244      0x22b Debug\diskio.o
 .debug_loc     0x000000000001146f       0x9e Debug\HS_Controller.o

.debug_macinfo
 *(.debug_macinfo)

.debug_weaknames
 *(.debug_weaknames)

.debug_funcnames
 *(.debug_funcnames)

.debug_typenames
 *(.debug_typenames)

.debug_varnames
 *(.debug_varnames)
OUTPUT(Debug\hyperscan.elf elf32-littlescore)

.pdr            0x0000000000000000     0x9da0
 .pdr           0x0000000000000000        0x0 Debug\hyperscan_startup.o
 .pdr           0x0000000000000000      0x180 Debug\z_zone.o
 .pdr           0x0000000000000180      0x4c0 Debug\wi_stuff.o
 .pdr           0x0000000000000640      0x1c0 Debug\w_wad.o
 .pdr           0x0000000000000800       0x20 Debug\w_main.o
 .pdr           0x0000000000000820       0x60 Debug\w_file_stdc.o
 .pdr           0x0000000000000880       0x60 Debug\w_file.o
 .pdr           0x00000000000008e0       0x60 Debug\w_checksum.o
 .pdr           0x0000000000000940      0x300 Debug\v_video.o
 .pdr           0x0000000000000c40       0x20 Debug\tables.o
 .pdr           0x0000000000000c60       0x40 Debug\statdump.o
 .pdr           0x0000000000000ca0      0x2e0 Debug\st_stuff.o
 .pdr           0x0000000000000f80      0x140 Debug\st_lib.o
 .pdr           0x00000000000010c0        0x0 Debug\sounds.o
 .pdr           0x00000000000010c0       0xc0 Debug\sha1.o
 .pdr           0x0000000000001180      0x220 Debug\s_sound.o
 .pdr           0x00000000000013a0      0x1c0 Debug\r_things.o
 .pdr           0x0000000000001560       0x20 Debug\r_sky.o
 .pdr           0x0000000000001580       0x60 Debug\r_segs.o
 .pdr           0x00000000000015e0       0xe0 Debug\r_plane.o
 .pdr           0x00000000000016c0      0x220 Debug\r_main.o
 .pdr           0x00000000000018e0      0x1a0 Debug\r_draw.o
 .pdr           0x0000000000001a80      0x1c0 Debug\r_data.o
 .pdr           0x0000000000001c40      0x100 Debug\r_bsp.o
 .pdr           0x0000000000001d40       0xa0 Debug\p_user.o
 .pdr           0x0000000000001de0       0xc0 Debug\p_tick.o
 .pdr           0x0000000000001ea0       0x20 Debug\p_telept.o
 .pdr           0x0000000000001ec0       0x80 Debug\p_switch.o
 .pdr           0x0000000000001f40      0x260 Debug\p_spec.o
 .pdr           0x00000000000021a0       0xa0 Debug\p_sight.o
 .pdr           0x0000000000002240      0x1e0 Debug\p_setup.o
 .pdr           0x0000000000002420      0x680 Debug\p_saveg.o
 .pdr           0x0000000000002aa0      0x3e0 Debug\p_pspr.o
 .pdr           0x0000000000002e80       0xc0 Debug\p_plats.o
 .pdr           0x0000000000002f40      0x220 Debug\p_mobj.o
 .pdr           0x0000000000003160      0x220 Debug\p_maputl.o
 .pdr           0x0000000000003380      0x2a0 Debug\p_map.o
 .pdr           0x0000000000003620      0x160 Debug\p_lights.o
 .pdr           0x0000000000003780      0x120 Debug\p_inter.o
 .pdr           0x00000000000038a0       0x80 Debug\p_floor.o
 .pdr           0x0000000000003920      0x820 Debug\p_enemy.o
 .pdr           0x0000000000004140       0xc0 Debug\p_doors.o
 .pdr           0x0000000000004200       0xc0 Debug\p_ceilng.o
 .pdr           0x00000000000042c0      0x180 Debug\mus2mid.o
 .pdr           0x0000000000004440      0x100 Debug\memio.o
 .pdr           0x0000000000004540       0x60 Debug\m_random.o
 .pdr           0x00000000000045a0      0x260 Debug\m_misc.o
 .pdr           0x0000000000004800      0x700 Debug\m_menu.o
 .pdr           0x0000000000004f00       0x40 Debug\m_fixed.o
 .pdr           0x0000000000004f40      0x120 Debug\m_controls.o
 .pdr           0x0000000000005060      0x240 Debug\m_config.o
 .pdr           0x00000000000052a0       0x40 Debug\m_cheat.o
 .pdr           0x00000000000052e0       0x40 Debug\m_bbox.o
 .pdr           0x0000000000005320       0xc0 Debug\m_argv.o
 .pdr           0x00000000000053e0        0x0 Debug\info.o
 .pdr           0x00000000000053e0        0x0 Debug\icon.o
 .pdr           0x00000000000053e0      0x280 Debug\i_video.o
 .pdr           0x0000000000005660       0xc0 Debug\i_timer.o
 .pdr           0x0000000000005720      0x1c0 Debug\i_system.o
 .pdr           0x00000000000058e0      0x300 Debug\i_sound.o
 .pdr           0x0000000000005be0      0x440 Debug\i_scale.o
 .pdr           0x0000000000006020       0x80 Debug\i_joystick.o
 .pdr           0x00000000000060a0       0xa0 Debug\i_input.o
 .pdr           0x0000000000006140       0x20 Debug\i_endoom.o
 .pdr           0x0000000000006160      0x120 Debug\i_cdmus.o
 .pdr           0x0000000000006280      0x120 Debug\hu_stuff.o
 .pdr           0x00000000000063a0      0x280 Debug\hu_lib.o
 .pdr           0x0000000000006620      0x100 Debug\gusconf.o
 .pdr           0x0000000000006720      0x4e0 Debug\g_game.o
 .pdr           0x0000000000006c00      0x140 Debug\f_wipe.o
 .pdr           0x0000000000006d40      0x1a0 Debug\f_finale.o
 .pdr           0x0000000000006ee0       0x20 Debug\dummy.o
 .pdr           0x0000000000006f00        0x0 Debug\dstrings.o
 .pdr           0x0000000000006f00        0x0 Debug\doomstat.o
 .pdr           0x0000000000006f00      0x1e0 Debug\doomgeneric_hyperscan.o
 .pdr           0x00000000000070e0       0x20 Debug\doomgeneric.o
 .pdr           0x0000000000007100        0x0 Debug\doomdef.o
 .pdr           0x0000000000007100       0xe0 Debug\d_net.o
 .pdr           0x00000000000071e0       0xc0 Debug\d_mode.o
 .pdr           0x00000000000072a0      0x2a0 Debug\d_main.o
 .pdr           0x0000000000007540      0x200 Debug\d_loop.o
 .pdr           0x0000000000007740      0x1a0 Debug\d_iwad.o
 .pdr           0x00000000000078e0        0x0 Debug\d_items.o
 .pdr           0x00000000000078e0       0x40 Debug\d_event.o
 .pdr           0x0000000000007920      0x440 Debug\am_map.o
 .pdr           0x0000000000007d60      0x260 Debug\libgloss.o
 .pdr           0x0000000000007fc0       0x60 Debug\UART.o
 .pdr           0x0000000000008020      0x160 Debug\TV.o
 .pdr           0x0000000000008180      0x100 Debug\NorFlash.o
 .pdr           0x0000000000008280       0x20 Debug\User_IRQ.o
 .pdr           0x00000000000082a0       0x40 Debug\sys_isr.o
 .pdr           0x00000000000082e0       0x60 Debug\I2C.o
 .pdr           0x0000000000008340      0x600 Debug\ff.o
 .pdr           0x0000000000008940      0x120 Debug\diskio.o
 .pdr           0x0000000000008a60       0x40 Debug\HS_Controller.o
 .pdr           0x0000000000008aa0       0x20 c:/sunplus/s_core~1.1/gnu/bin/../lib/gcc/score-elf/4.2.1/../../../../score-elf/lib/mel\libc.a(abort.o)
 .pdr           0x0000000000008ac0       0x20 c:/sunplus/s_core~1.1/gnu/bin/../lib/gcc/score-elf/4.2.1/../../../../score-elf/lib/mel\libc.a(atof.o)
 .pdr           0x0000000000008ae0       0x40 c:/sunplus/s_core~1.1/gnu/bin/../lib/gcc/score-elf/4.2.1/../../../../score-elf/lib/mel\libc.a(atoi.o)
 .pdr           0x0000000000008b20       0x20 c:/sunplus/s_core~1.1/gnu/bin/../lib/gcc/score-elf/4.2.1/../../../../score-elf/lib/mel\libc.a(calloc.o)
 .pdr           0x0000000000008b40       0x20 c:/sunplus/s_core~1.1/gnu/bin/../lib/gcc/score-elf/4.2.1/../../../../score-elf/lib/mel\libc.a(callocr.o)
 .pdr           0x0000000000008b60        0x0 c:/sunplus/s_core~1.1/gnu/bin/../lib/gcc/score-elf/4.2.1/../../../../score-elf/lib/mel\libc.a(ctype_.o)
 .pdr           0x0000000000008b60       0x20 c:/sunplus/s_core~1.1/gnu/bin/../lib/gcc/score-elf/4.2.1/../../../../score-elf/lib/mel\libc.a(errno.o)
 .pdr           0x0000000000008b80       0x20 c:/sunplus/s_core~1.1/gnu/bin/../lib/gcc/score-elf/4.2.1/../../../../score-elf/lib/mel\libc.a(exit.o)
 .pdr           0x0000000000008ba0       0x20 c:/sunplus/s_core~1.1/gnu/bin/../lib/gcc/score-elf/4.2.1/../../../../score-elf/lib/mel\libc.a(fclose.o)
 .pdr           0x0000000000008bc0       0x20 c:/sunplus/s_core~1.1/gnu/bin/../lib/gcc/score-elf/4.2.1/../../../../score-elf/lib/mel\libc.a(fflush.o)
 .pdr           0x0000000000008be0       0xc0 c:/sunplus/s_core~1.1/gnu/bin/../lib/gcc/score-elf/4.2.1/../../../../score-elf/lib/mel\libc.a(findfp.o)
 .pdr           0x0000000000008ca0       0x40 c:/sunplus/s_core~1.1/gnu/bin/../lib/gcc/score-elf/4.2.1/../../../../score-elf/lib/mel\libc.a(fopen.o)
 .pdr           0x0000000000008ce0       0x20 c:/sunplus/s_core~1.1/gnu/bin/../lib/gcc/score-elf/4.2.1/../../../../score-elf/lib/mel\libc.a(fprintf.o)
 .pdr           0x0000000000008d00       0x20 c:/sunplus/s_core~1.1/gnu/bin/../lib/gcc/score-elf/4.2.1/../../../../score-elf/lib/mel\libc.a(fputc.o)
 .pdr           0x0000000000008d20       0x20 c:/sunplus/s_core~1.1/gnu/bin/../lib/gcc/score-elf/4.2.1/../../../../score-elf/lib/mel\libc.a(fread.o)
 .pdr           0x0000000000008d40       0x40 c:/sunplus/s_core~1.1/gnu/bin/../lib/gcc/score-elf/4.2.1/../../../../score-elf/lib/mel\libc.a(freer.o)
 .pdr           0x0000000000008d80       0x40 c:/sunplus/s_core~1.1/gnu/bin/../lib/gcc/score-elf/4.2.1/../../../../score-elf/lib/mel\libc.a(fseek.o)
 .pdr           0x0000000000008dc0       0x40 c:/sunplus/s_core~1.1/gnu/bin/../lib/gcc/score-elf/4.2.1/../../../../score-elf/lib/mel\libc.a(ftell.o)
 .pdr           0x0000000000008e00       0x20 c:/sunplus/s_core~1.1/gnu/bin/../lib/gcc/score-elf/4.2.1/../../../../score-elf/lib/mel\libc.a(fwalk.o)
 .pdr           0x0000000000008e20       0x20 c:/sunplus/s_core~1.1/gnu/bin/../lib/gcc/score-elf/4.2.1/../../../../score-elf/lib/mel\libc.a(fwrite.o)
 .pdr           0x0000000000008e40        0x0 c:/sunplus/s_core~1.1/gnu/bin/../lib/gcc/score-elf/4.2.1/../../../../score-elf/lib/mel\libc.a(impure.o)
 .pdr           0x0000000000008e40       0x20 c:/sunplus/s_core~1.1/gnu/bin/../lib/gcc/score-elf/4.2.1/../../../../score-elf/lib/mel\libc.a(makebuf.o)
 .pdr           0x0000000000008e60       0x40 c:/sunplus/s_core~1.1/gnu/bin/../lib/gcc/score-elf/4.2.1/../../../../score-elf/lib/mel\libc.a(malloc.o)
 .pdr           0x0000000000008ea0       0x20 c:/sunplus/s_core~1.1/gnu/bin/../lib/gcc/score-elf/4.2.1/../../../../score-elf/lib/mel\libc.a(mallocr.o)
 .pdr           0x0000000000008ec0       0x20 c:/sunplus/s_core~1.1/gnu/bin/../lib/gcc/score-elf/4.2.1/../../../../score-elf/lib/mel\libc.a(memcmp.o)
 .pdr           0x0000000000008ee0       0x20 c:/sunplus/s_core~1.1/gnu/bin/../lib/gcc/score-elf/4.2.1/../../../../score-elf/lib/mel\libc.a(memcpy.o)
 .pdr           0x0000000000008f00       0x20 c:/sunplus/s_core~1.1/gnu/bin/../lib/gcc/score-elf/4.2.1/../../../../score-elf/lib/mel\libc.a(memmove.o)
 .pdr           0x0000000000008f20       0x20 c:/sunplus/s_core~1.1/gnu/bin/../lib/gcc/score-elf/4.2.1/../../../../score-elf/lib/mel\libc.a(memset.o)
 .pdr           0x0000000000008f40       0x40 c:/sunplus/s_core~1.1/gnu/bin/../lib/gcc/score-elf/4.2.1/../../../../score-elf/lib/mel\libc.a(mlock.o)
 .pdr           0x0000000000008f80       0x40 c:/sunplus/s_core~1.1/gnu/bin/../lib/gcc/score-elf/4.2.1/../../../../score-elf/lib/mel\libc.a(printf.o)
 .pdr           0x0000000000008fc0       0x40 c:/sunplus/s_core~1.1/gnu/bin/../lib/gcc/score-elf/4.2.1/../../../../score-elf/lib/mel\libc.a(putchar.o)
 .pdr           0x0000000000009000       0x40 c:/sunplus/s_core~1.1/gnu/bin/../lib/gcc/score-elf/4.2.1/../../../../score-elf/lib/mel\libc.a(puts.o)
 .pdr           0x0000000000009040       0x20 c:/sunplus/s_core~1.1/gnu/bin/../lib/gcc/score-elf/4.2.1/../../../../score-elf/lib/mel\libc.a(realloc.o)
 .pdr           0x0000000000009060       0x20 c:/sunplus/s_core~1.1/gnu/bin/../lib/gcc/score-elf/4.2.1/../../../../score-elf/lib/mel\libc.a(reallocr.o)
 .pdr           0x0000000000009080       0x40 c:/sunplus/s_core~1.1/gnu/bin/../lib/gcc/score-elf/4.2.1/../../../../score-elf/lib/mel\libc.a(refill.o)
 .pdr           0x00000000000090c0       0x40 c:/sunplus/s_core~1.1/gnu/bin/../lib/gcc/score-elf/4.2.1/../../../../score-elf/lib/mel\libc.a(remove.o)
 .pdr           0x0000000000009100       0x40 c:/sunplus/s_core~1.1/gnu/bin/../lib/gcc/score-elf/4.2.1/../../../../score-elf/lib/mel\libc.a(rename.o)
 .pdr           0x0000000000009140      0x100 c:/sunplus/s_core~1.1/gnu/bin/../lib/gcc/score-elf/4.2.1/../../../../score-elf/lib/mel\libc.a(signal.o)
 .pdr           0x0000000000009240       0x40 c:/sunplus/s_core~1.1/gnu/bin/../lib/gcc/score-elf/4.2.1/../../../../score-elf/lib/mel\libc.a(snprintf.o)
 .pdr           0x0000000000009280       0x60 c:/sunplus/s_core~1.1/gnu/bin/../lib/gcc/score-elf/4.2.1/../../../../score-elf/lib/mel\libc.a(sscanf.o)
 .pdr           0x00000000000092e0       0x80 c:/sunplus/s_core~1.1/gnu/bin/../lib/gcc/score-elf/4.2.1/../../../../score-elf/lib/mel\libc.a(stdio.o)
 .pdr           0x0000000000009360       0x20 c:/sunplus/s_core~1.1/gnu/bin/../lib/gcc/score-elf/4.2.1/../../../../score-elf/lib/mel\libc.a(strcasecmp.o)
 .pdr           0x0000000000009380       0x20 c:/sunplus/s_core~1.1/gnu/bin/../lib/gcc/score-elf/4.2.1/../../../../score-elf/lib/mel\libc.a(strchr.o)
 .pdr           0x00000000000093a0       0x20 c:/sunplus/s_core~1.1/gnu/bin/../lib/gcc/score-elf/4.2.1/../../../../score-elf/lib/mel\libc.a(strcmp.o)
 .pdr           0x00000000000093c0       0x20 c:/sunplus/s_core~1.1/gnu/bin/../lib/gcc/score-elf/4.2.1/../../../../score-elf/lib/mel\libc.a(strdup.o)
 .pdr           0x00000000000093e0       0x20 c:/sunplus/s_core~1.1/gnu/bin/../lib/gcc/score-elf/4.2.1/../../../../score-elf/lib/mel\libc.a(strdup_r.o)
 .pdr           0x0000000000009400       0x20 c:/sunplus/s_core~1.1/gnu/bin/../lib/gcc/score-elf/4.2.1/../../../../score-elf/lib/mel\libc.a(strlen.o)
 .pdr           0x0000000000009420       0x20 c:/sunplus/s_core~1.1/gnu/bin/../lib/gcc/score-elf/4.2.1/../../../../score-elf/lib/mel\libc.a(strncasecmp.o)
 .pdr           0x0000000000009440       0x20 c:/sunplus/s_core~1.1/gnu/bin/../lib/gcc/score-elf/4.2.1/../../../../score-elf/lib/mel\libc.a(strncmp.o)
 .pdr           0x0000000000009460       0x20 c:/sunplus/s_core~1.1/gnu/bin/../lib/gcc/score-elf/4.2.1/../../../../score-elf/lib/mel\libc.a(strncpy.o)
 .pdr           0x0000000000009480       0x20 c:/sunplus/s_core~1.1/gnu/bin/../lib/gcc/score-elf/4.2.1/../../../../score-elf/lib/mel\libc.a(strrchr.o)
 .pdr           0x00000000000094a0       0x20 c:/sunplus/s_core~1.1/gnu/bin/../lib/gcc/score-elf/4.2.1/../../../../score-elf/lib/mel\libc.a(strstr.o)
 .pdr           0x00000000000094c0       0x80 c:/sunplus/s_core~1.1/gnu/bin/../lib/gcc/score-elf/4.2.1/../../../../score-elf/lib/mel\libc.a(strtod.o)
 .pdr           0x0000000000009540       0x40 c:/sunplus/s_core~1.1/gnu/bin/../lib/gcc/score-elf/4.2.1/../../../../score-elf/lib/mel\libc.a(strtol.o)
 .pdr           0x0000000000009580       0x20 c:/sunplus/s_core~1.1/gnu/bin/../lib/gcc/score-elf/4.2.1/../../../../score-elf/lib/mel\libc.a(sysread.o)
 .pdr           0x00000000000095a0       0x40 c:/sunplus/s_core~1.1/gnu/bin/../lib/gcc/score-elf/4.2.1/../../../../score-elf/lib/mel\libc.a(system.o)
 .pdr           0x00000000000095e0       0x20 c:/sunplus/s_core~1.1/gnu/bin/../lib/gcc/score-elf/4.2.1/../../../../score-elf/lib/mel\libc.a(syswrite.o)
 .pdr           0x0000000000009600       0x60 c:/sunplus/s_core~1.1/gnu/bin/../lib/gcc/score-elf/4.2.1/../../../../score-elf/lib/mel\libc.a(vfprintf.o)
 .pdr           0x0000000000009660       0xa0 c:/sunplus/s_core~1.1/gnu/bin/../lib/gcc/score-elf/4.2.1/../../../../score-elf/lib/mel\libc.a(vfscanf.o)
 .pdr           0x0000000000009700       0x40 c:/sunplus/s_core~1.1/gnu/bin/../lib/gcc/score-elf/4.2.1/../../../../score-elf/lib/mel\libc.a(vsnprintf.o)
 .pdr           0x0000000000009740       0x20 c:/sunplus/s_core~1.1/gnu/bin/../lib/gcc/score-elf/4.2.1/../../../../score-elf/lib/mel\libc.a(wbuf.o)
 .pdr           0x0000000000009760       0x40 c:/sunplus/s_core~1.1/gnu/bin/../lib/gcc/score-elf/4.2.1/../../../../score-elf/lib/mel\libc.a(wcrtomb.o)
 .pdr           0x00000000000097a0       0x40 c:/sunplus/s_core~1.1/gnu/bin/../lib/gcc/score-elf/4.2.1/../../../../score-elf/lib/mel\libc.a(wcsrtombs.o)
 .pdr           0x00000000000097e0       0x20 c:/sunplus/s_core~1.1/gnu/bin/../lib/gcc/score-elf/4.2.1/../../../../score-elf/lib/mel\libc.a(wctomb_r.o)
 .pdr           0x0000000000009800       0x20 c:/sunplus/s_core~1.1/gnu/bin/../lib/gcc/score-elf/4.2.1/../../../../score-elf/lib/mel\libc.a(wsetup.o)
 .pdr           0x0000000000009820       0x40 c:/sunplus/s_core~1.1/gnu/bin/../lib/gcc/score-elf/4.2.1/../../../../score-elf/lib/mel\libc.a(dtoa.o)
 .pdr           0x0000000000009860       0x20 c:/sunplus/s_core~1.1/gnu/bin/../lib/gcc/score-elf/4.2.1/../../../../score-elf/lib/mel\libc.a(flags.o)
 .pdr           0x0000000000009880       0x20 c:/sunplus/s_core~1.1/gnu/bin/../lib/gcc/score-elf/4.2.1/../../../../score-elf/lib/mel\libc.a(fvwrite.o)
 .pdr           0x00000000000098a0       0x20 c:/sunplus/s_core~1.1/gnu/bin/../lib/gcc/score-elf/4.2.1/../../../../score-elf/lib/mel\libc.a(iswspace.o)
 .pdr           0x00000000000098c0       0xa0 c:/sunplus/s_core~1.1/gnu/bin/../lib/gcc/score-elf/4.2.1/../../../../score-elf/lib/mel\libc.a(locale.o)
 .pdr           0x0000000000009960       0x40 c:/sunplus/s_core~1.1/gnu/bin/../lib/gcc/score-elf/4.2.1/../../../../score-elf/lib/mel\libc.a(mbrtowc.o)
 .pdr           0x00000000000099a0       0x20 c:/sunplus/s_core~1.1/gnu/bin/../lib/gcc/score-elf/4.2.1/../../../../score-elf/lib/mel\libc.a(mbtowc_r.o)
 .pdr           0x00000000000099c0       0x20 c:/sunplus/s_core~1.1/gnu/bin/../lib/gcc/score-elf/4.2.1/../../../../score-elf/lib/mel\libc.a(memchr.o)
 .pdr           0x00000000000099e0      0x220 c:/sunplus/s_core~1.1/gnu/bin/../lib/gcc/score-elf/4.2.1/../../../../score-elf/lib/mel\libc.a(mprec.o)
 .pdr           0x0000000000009c00        0x0 c:/sunplus/s_core~1.1/gnu/bin/../lib/gcc/score-elf/4.2.1/../../../../score-elf/lib/mel\libc.a(s_infconst.o)
 .pdr           0x0000000000009c00       0x20 c:/sunplus/s_core~1.1/gnu/bin/../lib/gcc/score-elf/4.2.1/../../../../score-elf/lib/mel\libc.a(s_isinf.o)
 .pdr           0x0000000000009c20       0x20 c:/sunplus/s_core~1.1/gnu/bin/../lib/gcc/score-elf/4.2.1/../../../../score-elf/lib/mel\libc.a(s_isnan.o)
 .pdr           0x0000000000009c40       0x40 c:/sunplus/s_core~1.1/gnu/bin/../lib/gcc/score-elf/4.2.1/../../../../score-elf/lib/mel\libc.a(sprintf.o)
 .pdr           0x0000000000009c80       0x20 c:/sunplus/s_core~1.1/gnu/bin/../lib/gcc/score-elf/4.2.1/../../../../score-elf/lib/mel\libc.a(strtoll_r.o)
 .pdr           0x0000000000009ca0       0x20 c:/sunplus/s_core~1.1/gnu/bin/../lib/gcc/score-elf/4.2.1/../../../../score-elf/lib/mel\libc.a(strtoull_r.o)
 .pdr           0x0000000000009cc0       0x40 c:/sunplus/s_core~1.1/gnu/bin/../lib/gcc/score-elf/4.2.1/../../../../score-elf/lib/mel\libc.a(strtoul.o)
 .pdr           0x0000000000009d00       0x40 c:/sunplus/s_core~1.1/gnu/bin/../lib/gcc/score-elf/4.2.1/../../../../score-elf/lib/mel\libc.a(ungetc.o)
 .pdr           0x0000000000009d40        0x0 c:/sunplus/s_core~1.1/gnu/bin/../lib/gcc/score-elf/4.2.1/mel\libgcc.a(_addsub_sf.o)
 .pdr           0x0000000000009d40        0x0 c:/sunplus/s_core~1.1/gnu/bin/../lib/gcc/score-elf/4.2.1/mel\libgcc.a(_addsub_df.o)
 .pdr           0x0000000000009d40        0x0 c:/sunplus/s_core~1.1/gnu/bin/../lib/gcc/score-elf/4.2.1/mel\libgcc.a(_mulsf3.o)
 .pdr           0x0000000000009d40        0x0 c:/sunplus/s_core~1.1/gnu/bin/../lib/gcc/score-elf/4.2.1/mel\libgcc.a(_muldf3.o)
 .pdr           0x0000000000009d40        0x0 c:/sunplus/s_core~1.1/gnu/bin/../lib/gcc/score-elf/4.2.1/mel\libgcc.a(_divsf3.o)
 .pdr           0x0000000000009d40        0x0 c:/sunplus/s_core~1.1/gnu/bin/../lib/gcc/score-elf/4.2.1/mel\libgcc.a(_divdf3.o)
 .pdr           0x0000000000009d40        0x0 c:/sunplus/s_core~1.1/gnu/bin/../lib/gcc/score-elf/4.2.1/mel\libgcc.a(_clz32.o)
 .pdr           0x0000000000009d40        0x0 c:/sunplus/s_core~1.1/gnu/bin/../lib/gcc/score-elf/4.2.1/mel\libgcc.a(_clz64.o)
 .pdr           0x0000000000009d40        0x0 c:/sunplus/s_core~1.1/gnu/bin/../lib/gcc/score-elf/4.2.1/mel\libgcc.a(_floatsisf.o)
 .pdr           0x0000000000009d40        0x0 c:/sunplus/s_core~1.1/gnu/bin/../lib/gcc/score-elf/4.2.1/mel\libgcc.a(_floatsidf.o)
 .pdr           0x0000000000009d40        0x0 c:/sunplus/s_core~1.1/gnu/bin/../lib/gcc/score-elf/4.2.1/mel\libgcc.a(_floatunsidf.o)
 .pdr           0x0000000000009d40        0x0 c:/sunplus/s_core~1.1/gnu/bin/../lib/gcc/score-elf/4.2.1/mel\libgcc.a(_sf_to_df.o)
 .pdr           0x0000000000009d40        0x0 c:/sunplus/s_core~1.1/gnu/bin/../lib/gcc/score-elf/4.2.1/mel\libgcc.a(_df_to_sf.o)
 .pdr           0x0000000000009d40        0x0 c:/sunplus/s_core~1.1/gnu/bin/../lib/gcc/score-elf/4.2.1/mel\libgcc.a(_fixsfsi.o)
 .pdr           0x0000000000009d40        0x0 c:/sunplus/s_core~1.1/gnu/bin/../lib/gcc/score-elf/4.2.1/mel\libgcc.a(_fixdfsi.o)
 .pdr           0x0000000000009d40        0x0 c:/sunplus/s_core~1.1/gnu/bin/../lib/gcc/score-elf/4.2.1/mel\libgcc.a(_fpcmp_parts_df.o)
 .pdr           0x0000000000009d40       0x20 c:/sunplus/s_core~1.1/gnu/bin/../lib/gcc/score-elf/4.2.1/mel\libgcc.a(_divdi3.o)
 .pdr           0x0000000000009d60       0x20 c:/sunplus/s_core~1.1/gnu/bin/../lib/gcc/score-elf/4.2.1/mel\libgcc.a(_udivdi3.o)
 .pdr           0x0000000000009d80       0x20 c:/sunplus/s_core~1.1/gnu/bin/../lib/gcc/score-elf/4.2.1/mel\libgcc.a(_umoddi3.o)
 .pdr           0x0000000000009da0        0x0 c:/sunplus/s_core~1.1/gnu/bin/../lib/gcc/score-elf/4.2.1/mel\libgcc.a(_clz.o)

.debug_ranges   0x0000000000000000       0x20
 .debug_ranges  0x0000000000000000       0x20 Debug\hyperscan_startup.o
